
Appli_multi_PWM.elf:     file format elf32-littlenios2
Appli_multi_PWM.elf
architecture: nios2:r1, flags 0x00000112:
EXEC_P, HAS_SYMS, D_PAGED
start address 0x00000230

Program Header:
    LOAD off    0x00001000 vaddr 0x00000000 paddr 0x00000000 align 2**12
         filesz 0x00000020 memsz 0x00000020 flags r-x
    LOAD off    0x00001020 vaddr 0x00000020 paddr 0x00000020 align 2**12
         filesz 0x00016418 memsz 0x00016418 flags r-x
    LOAD off    0x00017438 vaddr 0x00016438 paddr 0x000180a0 align 2**12
         filesz 0x00001c68 memsz 0x00001c68 flags rw-
    LOAD off    0x00019d08 vaddr 0x00019d08 paddr 0x00019d08 align 2**12
         filesz 0x00000000 memsz 0x00000178 flags rw-

Sections:
Idx Name          Size      VMA       LMA       File off  Algn
  0 .entry        00000020  00000000  00000000  00001000  2**5
                  CONTENTS, ALLOC, LOAD, READONLY, CODE
  1 .exceptions   00000210  00000020  00000020  00001020  2**2
                  CONTENTS, ALLOC, LOAD, READONLY, CODE
  2 .text         00015bb4  00000230  00000230  00001230  2**2
                  CONTENTS, ALLOC, LOAD, READONLY, CODE
  3 .rodata       00000654  00015de4  00015de4  00016de4  2**2
                  CONTENTS, ALLOC, LOAD, READONLY, DATA
  4 .rwdata       00001c68  00016438  000180a0  00017438  2**2
                  CONTENTS, ALLOC, LOAD, DATA, SMALL_DATA
  5 .bss          00000178  00019d08  00019d08  00019d08  2**2
                  ALLOC, SMALL_DATA
  6 .new_sdram_controller_0 00000000  00019e80  00019e80  000190a0  2**0
                  CONTENTS
  7 .comment      00000023  00000000  00000000  000190a0  2**0
                  CONTENTS, READONLY
  8 .debug_aranges 00001168  00000000  00000000  000190c8  2**3
                  CONTENTS, READONLY, DEBUGGING
  9 .debug_info   0002d1cb  00000000  00000000  0001a230  2**0
                  CONTENTS, READONLY, DEBUGGING
 10 .debug_abbrev 0000b258  00000000  00000000  000473fb  2**0
                  CONTENTS, READONLY, DEBUGGING
 11 .debug_line   0000e80c  00000000  00000000  00052653  2**0
                  CONTENTS, READONLY, DEBUGGING
 12 .debug_frame  000028fc  00000000  00000000  00060e60  2**2
                  CONTENTS, READONLY, DEBUGGING
 13 .debug_str    00004193  00000000  00000000  0006375c  2**0
                  CONTENTS, READONLY, DEBUGGING
 14 .debug_loc    0001d621  00000000  00000000  000678ef  2**0
                  CONTENTS, READONLY, DEBUGGING
 15 .debug_alt_sim_info 00000040  00000000  00000000  00084f10  2**2
                  CONTENTS, READONLY, DEBUGGING
 16 .debug_ranges 00001bc0  00000000  00000000  00084f50  2**3
                  CONTENTS, READONLY, DEBUGGING
 17 .thread_model 00000003  00000000  00000000  0008a516  2**0
                  CONTENTS, READONLY
 18 .cpu          00000007  00000000  00000000  0008a519  2**0
                  CONTENTS, READONLY
 19 .qsys         00000001  00000000  00000000  0008a520  2**0
                  CONTENTS, READONLY
 20 .simulation_enabled 00000001  00000000  00000000  0008a521  2**0
                  CONTENTS, READONLY
 21 .stderr_dev   00000008  00000000  00000000  0008a522  2**0
                  CONTENTS, READONLY
 22 .stdin_dev    00000008  00000000  00000000  0008a52a  2**0
                  CONTENTS, READONLY
 23 .stdout_dev   00000008  00000000  00000000  0008a532  2**0
                  CONTENTS, READONLY
 24 .sopc_system_name 00000013  00000000  00000000  0008a53a  2**0
                  CONTENTS, READONLY
 25 .quartus_project_dir 0000002f  00000000  00000000  0008a54d  2**0
                  CONTENTS, READONLY
 26 .jdi          00004407  00000000  00000000  0008a57c  2**0
                  CONTENTS, READONLY
 27 .sopcinfo     0006bd3c  00000000  00000000  0008e983  2**0
                  CONTENTS, READONLY
SYMBOL TABLE:
00000000 l    d  .entry	00000000 .entry
00000020 l    d  .exceptions	00000000 .exceptions
00000230 l    d  .text	00000000 .text
00015de4 l    d  .rodata	00000000 .rodata
00016438 l    d  .rwdata	00000000 .rwdata
00019d08 l    d  .bss	00000000 .bss
00019e80 l    d  .new_sdram_controller_0	00000000 .new_sdram_controller_0
00000000 l    d  .comment	00000000 .comment
00000000 l    d  .debug_aranges	00000000 .debug_aranges
00000000 l    d  .debug_info	00000000 .debug_info
00000000 l    d  .debug_abbrev	00000000 .debug_abbrev
00000000 l    d  .debug_line	00000000 .debug_line
00000000 l    d  .debug_frame	00000000 .debug_frame
00000000 l    d  .debug_str	00000000 .debug_str
00000000 l    d  .debug_loc	00000000 .debug_loc
00000000 l    d  .debug_alt_sim_info	00000000 .debug_alt_sim_info
00000000 l    d  .debug_ranges	00000000 .debug_ranges
00000000 l    df *ABS*	00000000 ../Appli_multi_PWM_bsp//obj/HAL/src/crt0.o
00000268 l       .text	00000000 alt_after_alt_main
00000000 l    df *ABS*	00000000 alt_irq_handler.c
00000000 l    df *ABS*	00000000 alt_instruction_exception_entry.c
00000000 l    df *ABS*	00000000 ihm_lcd.c
00000000 l    df *ABS*	00000000 main.c
00000000 l    df *ABS*	00000000 pwm.c
00000000 l    df *ABS*	00000000 pwmPioDriver.c
00000000 l    df *ABS*	00000000 lib2-divmod.c
00000000 l    df *ABS*	00000000 fflush.c
00000000 l    df *ABS*	00000000 findfp.c
00001728 l     F .text	00000008 __fp_unlock
0000173c l     F .text	0000019c __sinit.part.1
000018d8 l     F .text	00000008 __fp_lock
00000000 l    df *ABS*	00000000 fopen.c
00000000 l    df *ABS*	00000000 fprintf.c
00000000 l    df *ABS*	00000000 mallocr.c
00000000 l    df *ABS*	00000000 fseek.c
00000000 l    df *ABS*	00000000 fseeko.c
00000000 l    df *ABS*	00000000 fstatr.c
00000000 l    df *ABS*	00000000 fwalk.c
00000000 l    df *ABS*	00000000 fwrite.c
00000000 l    df *ABS*	00000000 impure.c
00016488 l     O .rwdata	00000424 impure_data
00000000 l    df *ABS*	00000000 int_errno.c
00000000 l    df *ABS*	00000000 makebuf.c
00000000 l    df *ABS*	00000000 mallocr.c
00000000 l    df *ABS*	00000000 memset.c
00000000 l    df *ABS*	00000000 openr.c
00000000 l    df *ABS*	00000000 printf.c
00000000 l    df *ABS*	00000000 puts.c
00000000 l    df *ABS*	00000000 refill.c
00003468 l     F .text	0000001c lflush
00000000 l    df *ABS*	00000000 sbrkr.c
00000000 l    df *ABS*	00000000 sprintf.c
00000000 l    df *ABS*	00000000 stdio.c
00000000 l    df *ABS*	00000000 strlen.c
00000000 l    df *ABS*	00000000 vfprintf.c
00015eb6 l     O .rodata	00000010 zeroes.4389
00015ec6 l     O .rodata	00000010 blanks.4388
00000000 l    df *ABS*	00000000 vfprintf.c
00015ed6 l     O .rodata	00000010 zeroes.4404
00007ef8 l     F .text	000000bc __sbprintf
00015ee6 l     O .rodata	00000010 blanks.4403
00000000 l    df *ABS*	00000000 writer.c
00000000 l    df *ABS*	00000000 wsetup.c
00000000 l    df *ABS*	00000000 closer.c
00000000 l    df *ABS*	00000000 dtoa.c
000081bc l     F .text	00000228 quorem
00000000 l    df *ABS*	00000000 fclose.c
00000000 l    df *ABS*	00000000 flags.c
00000000 l    df *ABS*	00000000 fvwrite.c
00000000 l    df *ABS*	00000000 isattyr.c
00000000 l    df *ABS*	00000000 locale.c
00016cd4 l     O .rwdata	00000020 lc_ctype_charset
00016cb4 l     O .rwdata	00000020 lc_message_charset
00016cf4 l     O .rwdata	00000038 lconv
00000000 l    df *ABS*	00000000 lseekr.c
00000000 l    df *ABS*	00000000 memchr.c
00000000 l    df *ABS*	00000000 memcpy.c
00000000 l    df *ABS*	00000000 memmove.c
00000000 l    df *ABS*	00000000 mprec.c
00015f14 l     O .rodata	0000000c p05.2768
00000000 l    df *ABS*	00000000 readr.c
00000000 l    df *ABS*	00000000 mallocr.c
00000000 l    df *ABS*	00000000 s_fpclassify.c
00000000 l    df *ABS*	00000000 strcmp.c
00000000 l    df *ABS*	00000000 vfprintf.c
00016038 l     O .rodata	00000010 zeroes.4333
00016048 l     O .rodata	00000010 blanks.4332
00000000 l    df *ABS*	00000000 vfprintf.c
0000d338 l     F .text	000000fc __sprint_r.part.0
00016058 l     O .rodata	00000010 zeroes.4349
0000e974 l     F .text	000000bc __sbprintf
00016068 l     O .rodata	00000010 blanks.4348
00000000 l    df *ABS*	00000000 mallocr.c
00000000 l    df *ABS*	00000000 fputwc.c
00000000 l    df *ABS*	00000000 wbuf.c
00000000 l    df *ABS*	00000000 wcrtomb.c
00000000 l    df *ABS*	00000000 wctomb_r.c
00000000 l    df *ABS*	00000000 libgcc2.c
00000000 l    df *ABS*	00000000 libgcc2.c
00000000 l    df *ABS*	00000000 lib2-mul.c
00000000 l    df *ABS*	00000000 adddf3.c
00000000 l    df *ABS*	00000000 divdf3.c
00000000 l    df *ABS*	00000000 eqdf2.c
00000000 l    df *ABS*	00000000 gedf2.c
00000000 l    df *ABS*	00000000 ledf2.c
00000000 l    df *ABS*	00000000 muldf3.c
00000000 l    df *ABS*	00000000 subdf3.c
00000000 l    df *ABS*	00000000 fixdfsi.c
00000000 l    df *ABS*	00000000 floatsidf.c
00000000 l    df *ABS*	00000000 floatunsidf.c
00000000 l    df *ABS*	00000000 libgcc2.c
00000000 l    df *ABS*	00000000 libgcc2.c
00000000 l    df *ABS*	00000000 alt_close.c
000124e0 l     F .text	0000003c alt_get_errno
00000000 l    df *ABS*	00000000 alt_dev.c
000125f4 l     F .text	0000002c alt_dev_null_write
00000000 l    df *ABS*	00000000 alt_errno.c
00000000 l    df *ABS*	00000000 alt_fstat.c
00012620 l     F .text	0000003c alt_get_errno
00000000 l    df *ABS*	00000000 alt_iic.c
00000000 l    df *ABS*	00000000 alt_iic_isr_register.c
00000000 l    df *ABS*	00000000 alt_irq_vars.c
00000000 l    df *ABS*	00000000 alt_isatty.c
000129b4 l     F .text	0000003c alt_get_errno
00000000 l    df *ABS*	00000000 alt_load.c
00012a9c l     F .text	00000068 alt_load_section
00000000 l    df *ABS*	00000000 alt_lseek.c
00012b88 l     F .text	0000003c alt_get_errno
00000000 l    df *ABS*	00000000 alt_main.c
00000000 l    df *ABS*	00000000 alt_malloc_lock.c
00000000 l    df *ABS*	00000000 alt_open.c
00012d64 l     F .text	0000003c alt_get_errno
00012da0 l     F .text	000000ec alt_file_locked
00000000 l    df *ABS*	00000000 alt_read.c
00012fe8 l     F .text	0000003c alt_get_errno
00000000 l    df *ABS*	00000000 alt_release_fd.c
00000000 l    df *ABS*	00000000 alt_sbrk.c
0001808c l     O .rwdata	00000004 heap_end
00000000 l    df *ABS*	00000000 alt_usleep.c
00000000 l    df *ABS*	00000000 alt_write.c
0001328c l     F .text	0000003c alt_get_errno
00000000 l    df *ABS*	00000000 alt_sys_init.c
000133c8 l     F .text	00000034 alt_dev_reg
00016ed4 l     O .rwdata	00001060 JtagUART
00017f34 l     O .rwdata	00000120 lcd_16207_0
00000000 l    df *ABS*	00000000 altera_avalon_jtag_uart_fd.c
00000000 l    df *ABS*	00000000 altera_avalon_jtag_uart_init.c
000136e8 l     F .text	0000020c altera_avalon_jtag_uart_irq
000138f4 l     F .text	000000a0 altera_avalon_jtag_uart_timeout
00000000 l    df *ABS*	00000000 altera_avalon_jtag_uart_ioctl.c
00000000 l    df *ABS*	00000000 altera_avalon_jtag_uart_read.c
00000000 l    df *ABS*	00000000 altera_avalon_jtag_uart_write.c
00000000 l    df *ABS*	00000000 altera_avalon_lcd_16207.c
00018090 l     O .rwdata	00000004 colstart
00013f2c l     F .text	000000b8 lcd_write_command
00013fe4 l     F .text	000000d8 lcd_write_data
000140bc l     F .text	000000e8 lcd_clear_screen
000141a4 l     F .text	00000228 lcd_repaint_screen
000143cc l     F .text	000000e8 lcd_scroll_up
000144b4 l     F .text	000002c4 lcd_handle_escape
00014c98 l     F .text	000000ac alt_lcd_16207_timeout
00000000 l    df *ABS*	00000000 altera_avalon_lcd_16207_fd.c
00000000 l    df *ABS*	00000000 altera_avalon_timer_sc.c
00014ed8 l     F .text	00000078 alt_avalon_timer_sc_irq
00000000 l    df *ABS*	00000000 altera_avalon_timer_vars.c
00000000 l    df *ABS*	00000000 alt_alarm_start.c
00000000 l    df *ABS*	00000000 alt_busy_sleep.c
00000000 l    df *ABS*	00000000 alt_dcache_flush_all.c
00000000 l    df *ABS*	00000000 alt_dev_llist_insert.c
00015270 l     F .text	0000003c alt_get_errno
00000000 l    df *ABS*	00000000 alt_do_ctors.c
00000000 l    df *ABS*	00000000 alt_do_dtors.c
00000000 l    df *ABS*	00000000 alt_find_dev.c
00000000 l    df *ABS*	00000000 alt_find_file.c
00000000 l    df *ABS*	00000000 alt_get_fd.c
00000000 l    df *ABS*	00000000 alt_icache_flush_all.c
00000000 l    df *ABS*	00000000 alt_io_redirect.c
00015728 l     F .text	000000e4 alt_open_fd
00000000 l    df *ABS*	00000000 alt_tick.c
00000000 l    df *ABS*	00000000 altera_nios2_gen2_irq.c
00000000 l    df *ABS*	00000000 atexit.c
00000000 l    df *ABS*	00000000 ctype_.c
000162b6 l     O .rodata	00000180 _ctype_b
00000000 l    df *ABS*	00000000 exit.c
00000000 l    df *ABS*	00000000 memcmp.c
00000000 l    df *ABS*	00000000 __atexit.c
00000000 l    df *ABS*	00000000 __call_atexit.c
00000000 l    df *ABS*	00000000 alt_exit.c
00019d4c g     O .bss	00000004 alt_instruction_exception_handler
00019d13 g     O .bss	00000001 digit
0000b53c g     F .text	00000074 _mprec_log10
0000b628 g     F .text	0000008c __any_on
0000a0e4 g     F .text	00000054 _isatty_r
00015f20 g     O .rodata	00000028 __mprec_tinytens
00012ca0 g     F .text	0000007c alt_main
00003394 g     F .text	000000c0 _puts_r
00019d80 g     O .bss	00000100 alt_irq
0000a214 g     F .text	00000060 _lseek_r
000180a0 g       *ABS*	00000000 __flash_rwdata_start
00009b70 g     F .text	000000ac __sflags
00010eb8 g     F .text	00000088 .hidden __eqdf2
00019e80 g       *ABS*	00000000 __alt_heap_start
00003358 g     F .text	0000003c printf
000011b4 g     F .text	00000050 isOn
0000ee6c g     F .text	0000009c _wcrtomb_r
00003848 g     F .text	0000005c __sseek
00001a88 g     F .text	00000010 __sinit
00001238 g     F .text	00000038 setTon
0000ed14 g     F .text	00000140 __swbuf_r
000012a4 g     F .text	00000028 readOnOff
0000a138 g     F .text	0000007c _setlocale_r
000018e0 g     F .text	00000078 __sfmoreglue
00001178 g     F .text	0000003c updateTon
00012d40 g     F .text	00000024 __malloc_unlock
00000fb4 g     F .text	0000006c initInterupt
00019d48 g     O .bss	00000004 altera_avalon_timer_ts_freq
00019d08 g     O .bss	00000004 fp
0000a4a0 g     F .text	0000015c memmove
00001a70 g     F .text	00000018 _cleanup
0000a5fc g     F .text	000000a8 _Balloc
00010f40 g     F .text	000000dc .hidden __gtdf2
00015a2c g     F .text	00000024 altera_nios2_gen2_irq_init
00000000 g     F .entry	0000000c __reset
00019d14 g     O .bss	00000004 edge_capture
00000020 g       *ABS*	00000000 __flash_exceptions_start
000024e4 g     F .text	0000005c _fstat_r
00019d18 g     O .bss	00000004 errno
000037c4 g     F .text	00000008 __seofread
0000bf98 g     F .text	000013a0 ___svfiprintf_internal_r
00019d3c g     O .bss	00000004 alt_argv
00020054 g       *ABS*	00000000 _gp
0001325c g     F .text	00000030 usleep
00016d54 g     O .rwdata	00000180 alt_fd_list
00015410 g     F .text	00000090 alt_find_dev
0000a358 g     F .text	00000148 memcpy
00001730 g     F .text	0000000c _cleanup_r
000122f8 g     F .text	000000dc .hidden __floatsidf
000002dc g     F .text	0000005c initLCD
0001580c g     F .text	0000007c alt_io_redirect
0001101c g     F .text	000000f4 .hidden __ltdf2
00015de4 g       *ABS*	00000000 __DTOR_END__
00003454 g     F .text	00000014 puts
0001568c g     F .text	0000009c alt_exception_cause_generated_bad_addr
0000bc78 g     F .text	00000074 __fpclassifyd
0000b498 g     F .text	000000a4 __ratio
0000e958 g     F .text	0000001c __vfiprintf_internal
00013aec g     F .text	0000021c altera_avalon_jtag_uart_read
00003328 g     F .text	00000030 _printf_r
000013c4 g     F .text	00000064 .hidden __udivsi3
000129f0 g     F .text	000000ac isatty
00015f70 g     O .rodata	000000c8 __mprec_tens
0000a1b4 g     F .text	0000000c __locale_charset
00019d24 g     O .bss	00000004 __malloc_top_pad
00018068 g     O .rwdata	00000004 __mb_cur_max
0000a1e4 g     F .text	0000000c _localeconv_r
0000aa30 g     F .text	0000003c __i2b
00009c1c g     F .text	000004c8 __sfvwrite_r
00001270 g     F .text	00000034 setOnOff
00003658 g     F .text	00000054 _sbrk_r
0000b6b4 g     F .text	00000060 _read_r
00018080 g     O .rwdata	00000004 alt_max_fd
00001078 g     F .text	00000098 setCanal
00009a6c g     F .text	000000f0 _fclose_r
000016f8 g     F .text	00000030 fflush
00019d20 g     O .bss	00000004 __malloc_max_sbrked_mem
0000fc3c g     F .text	000008ac .hidden __adddf3
0000b240 g     F .text	0000010c __b2d
0000f650 g     F .text	000005c4 .hidden __umoddi3
00012bc4 g     F .text	000000dc lseek
00018058 g     O .rwdata	00000004 _global_impure_ptr
0000b714 g     F .text	00000564 _realloc_r
00019e80 g       *ABS*	00000000 __bss_end
000128c4 g     F .text	000000f0 alt_iic_isr_register
00019d12 g     O .bss	00000001 updateOnOff
00015924 g     F .text	00000108 alt_tick
0000f054 g     F .text	000005fc .hidden __udivdi3
0000ec70 g     F .text	00000024 _fputwc_r
00015f48 g     O .rodata	00000028 __mprec_bigtens
0000a814 g     F .text	00000104 __s2b
000123d4 g     F .text	000000a8 .hidden __floatunsidf
0000af80 g     F .text	00000060 __mcmp
00018056 g     O .rwdata	00000002 increment
00001aa8 g     F .text	00000018 __fp_lock_all
00016458 g     O .rwdata	00000030 pwmTon
00012878 g     F .text	0000004c alt_ic_irq_enabled
00015888 g     F .text	0000009c alt_alarm_stop
00019d34 g     O .bss	00000004 alt_irq_active
00002084 g     F .text	00000444 _fseeko_r
000000fc g     F .exceptions	000000d4 alt_irq_handler
00016d2c g     O .rwdata	00000028 alt_dev_null
00015250 g     F .text	00000020 alt_dcache_flush_all
0000a918 g     F .text	00000068 __hi0bits
00012278 g     F .text	00000080 .hidden __fixdfsi
000180a0 g       *ABS*	00000000 __ram_rwdata_end
00018078 g     O .rwdata	00000008 alt_dev_list
000132c8 g     F .text	00000100 write
00016438 g       *ABS*	00000000 __ram_rodata_end
0001265c g     F .text	000000b8 fstat
00001c0c g     F .text	00000024 fprintf
0001101c g     F .text	000000f4 .hidden __ledf2
0000acf8 g     F .text	00000140 __pow5mult
0000d44c g     F .text	0000150c ___vfiprintf_internal_r
00019d30 g     O .bss	00000004 __nlocale_changed
00001428 g     F .text	00000058 .hidden __umodsi3
00019e80 g       *ABS*	00000000 end
00014778 g     F .text	00000520 altera_avalon_lcd_16207_write
000024c8 g     F .text	0000001c fseeko
00002068 g     F .text	0000001c fseek
00013628 g     F .text	000000c0 altera_avalon_jtag_uart_init
000001d0 g     F .exceptions	00000060 alt_instruction_exception_entry
00015de4 g       *ABS*	00000000 __CTOR_LIST__
08000000 g       *ABS*	00000000 __alt_stack_pointer
00014f50 g     F .text	0000007c alt_avalon_timer_sc_init
0001247c g     F .text	00000064 .hidden __clzsi2
00013d08 g     F .text	00000224 altera_avalon_jtag_uart_write
00001a98 g     F .text	00000004 __sfp_lock_acquire
0000a274 g     F .text	000000e4 memchr
00005c00 g     F .text	000022dc ___vfprintf_internal_r
000036ac g     F .text	00000058 _sprintf_r
00001d54 g     F .text	00000310 _free_r
0000a1c0 g     F .text	00000010 __locale_mb_cur_max
00015c30 g     F .text	00000180 __call_exitprocs
00000e4c g     F .text	00000168 boutonInterupt
00019d2c g     O .bss	00000004 __mlocale_changed
00018060 g     O .rwdata	00000004 __malloc_sbrk_base
00000230 g     F .text	0000003c _start
00019d50 g     O .bss	00000004 _alt_tick_rate
0000ae38 g     F .text	00000148 __lshift
00019d54 g     O .bss	00000004 _alt_nticks
00013024 g     F .text	00000104 read
00013434 g     F .text	00000090 alt_sys_init
0000bdc8 g     F .text	000001d0 __ssprint_r
000032c8 g     F .text	00000060 _open_r
00019d0c g     O .bss	00000001 numCanal
00015b18 g     F .text	00000118 __register_exitproc
00016438 g     O .rwdata	00000020 buffer
0000aa6c g     F .text	0000028c __multiply
00013994 g     F .text	00000068 altera_avalon_jtag_uart_close
0000fc14 g     F .text	00000028 .hidden __mulsi3
00016438 g       *ABS*	00000000 __ram_rwdata_start
00015de4 g       *ABS*	00000000 __ram_rodata_start
00019d58 g     O .bss	00000028 __malloc_current_mallinfo
0000b34c g     F .text	0000014c __d2b
000134c4 g     F .text	00000060 altera_avalon_jtag_uart_read_fd
000155a8 g     F .text	000000c4 alt_get_fd
000150f8 g     F .text	00000158 alt_busy_sleep
00008168 g     F .text	00000054 _close_r
00015a9c g     F .text	0000007c memcmp
00013584 g     F .text	00000050 altera_avalon_jtag_uart_close_fd
00019e80 g       *ABS*	00000000 __alt_stack_base
000135d4 g     F .text	00000054 altera_avalon_jtag_uart_ioctl_fd
000026c8 g     F .text	000000dc _fwrite_r
00008014 g     F .text	00000154 __swsetup_r
000104e8 g     F .text	000009d0 .hidden __divdf3
00001958 g     F .text	00000118 __sfp
0000b5b0 g     F .text	00000078 __copybits
000168ac g     O .rwdata	00000408 __malloc_av_
00001aa4 g     F .text	00000004 __sinit_lock_release
00011110 g     F .text	0000086c .hidden __muldf3
00003770 g     F .text	00000054 __sread
000154a0 g     F .text	00000108 alt_find_file
000152ac g     F .text	000000a4 alt_dev_llist_insert
00012d1c g     F .text	00000024 __malloc_lock
00001be4 g     F .text	00000028 _fprintf_r
000131ac g     F .text	000000b0 sbrk
00003944 g     F .text	000022bc ___svfprintf_internal_r
0000169c g     F .text	0000005c _fflush_r
00000380 g     F .text	00000088 writeOnOff
0000ea30 g     F .text	000000dc _calloc_r
00001bcc g     F .text	00000018 fopen
00019d08 g       *ABS*	00000000 __bss_start
000031a0 g     F .text	00000128 memset
00000554 g     F .text	000008f8 main
00019d40 g     O .bss	00000004 alt_envp
00019d1c g     O .bss	00000004 __malloc_max_total_mem
00013524 g     F .text	00000060 altera_avalon_jtag_uart_write_fd
0000ee54 g     F .text	00000018 __swbuf
00014d44 g     F .text	00000134 altera_avalon_lcd_16207_init
000038a4 g     F .text	00000008 __sclose
08000000 g       *ABS*	00000000 __alt_heap_limit
00009b5c g     F .text	00000014 fclose
000083e4 g     F .text	00001688 _dtoa_r
00002994 g     F .text	0000080c _malloc_r
0000efc8 g     F .text	00000030 __ascii_wctomb
00018084 g     O .rwdata	00000004 alt_errno
00002540 g     F .text	000000c4 _fwalk
000012cc g     F .text	00000084 .hidden __divsi3
00001c30 g     F .text	00000124 _malloc_trim_r
00015de4 g       *ABS*	00000000 __CTOR_END__
0000bcec g     F .text	000000dc strcmp
00015de4 g       *ABS*	00000000 __flash_rodata_start
00015de4 g       *ABS*	00000000 __DTOR_LIST__
00010eb8 g     F .text	00000088 .hidden __nedf2
000133fc g     F .text	00000038 alt_irq_init
00013128 g     F .text	00000084 alt_release_fd
00003704 g     F .text	0000006c sprintf
00016078 g     O .rodata	00000100 .hidden __clz_tab
00019d28 g     O .bss	00000004 _PathLocale
00000338 g     F .text	00000048 writeCaracter
00015a50 g     F .text	00000014 atexit
00007fb4 g     F .text	00000060 _write_r
0000a1f0 g     F .text	00000018 setlocale
0000026c g     F .text	00000070 customPrintf
0001805c g     O .rwdata	00000004 _impure_ptr
00019d38 g     O .bss	00000004 alt_argc
00001480 g     F .text	0000021c __sflush_r
00019d44 g     O .bss	00000004 altera_avalon_timer_ts_base
000153b0 g     F .text	00000060 _do_dtors
0000a1dc g     F .text	00000008 __locale_cjk_lang
00000408 g     F .text	00000098 writeCanal
00002064 g     F .text	00000004 _fseek_r
00003484 g     F .text	000001d4 __srefill_r
00000020 g       .exceptions	00000000 alt_irq_entry
0000b1dc g     F .text	00000064 __ulp
00001ac0 g     F .text	00000018 __fp_unlock_all
00014e78 g     F .text	00000060 altera_avalon_lcd_16207_write_fd
00018070 g     O .rwdata	00000008 alt_fs_list
00001204 g     F .text	00000034 setlatch
00019d10 g     O .bss	00000002 newTon
00001020 g     F .text	00000058 initPWM
00000020 g       *ABS*	00000000 __ram_exceptions_start
0000a208 g     F .text	0000000c localeconv
00000000 g       *ABS*	00000000 __alt_mem_new_sdram_controller_0
00012714 g     F .text	00000050 alt_ic_isr_register
000027a4 g     F .text	00000034 fwrite
000180a0 g       *ABS*	00000000 _edata
00019e80 g       *ABS*	00000000 _end
0000eb0c g     F .text	00000164 __fputwc
00000230 g       *ABS*	00000000 __ram_exceptions_end
000139fc g     F .text	000000f0 altera_avalon_jtag_uart_ioctl
000004a0 g     F .text	000000b4 writeTon
000127ec g     F .text	0000008c alt_ic_irq_disable
000037cc g     F .text	0000007c __swrite
00018064 g     O .rwdata	00000004 __malloc_trim_threshold
00018054 g     O .rwdata	00000001 lastNumCanal
0000a1d0 g     F .text	0000000c __locale_msgcharset
00015a64 g     F .text	00000038 exit
00002604 g     F .text	000000c4 _fwalk_reent
0000afe0 g     F .text	000001fc __mdiff
00001350 g     F .text	00000074 .hidden __modsi3
0001809c g     O .rwdata	00000004 __ctype_ptr__
08000000 g       *ABS*	00000000 __alt_data_end
00000020 g     F .exceptions	00000000 alt_exception
00001a9c g     F .text	00000004 __sfp_lock_release
000161b5 g     O .rodata	00000101 _ctype_
00001ad8 g     F .text	000000f4 _fopen_r
00015db0 g     F .text	00000034 _exit
00014fcc g     F .text	0000012c alt_alarm_start
000027d8 g     F .text	000001bc __smakebuf_r
000038ac g     F .text	00000098 strlen
00012e8c g     F .text	0000015c open
00010f40 g     F .text	000000dc .hidden __gedf2
0001806c g     O .rwdata	00000004 __wctomb
0000d434 g     F .text	00000018 __sprint_r
0001566c g     F .text	00000020 alt_icache_flush_all
00018088 g     O .rwdata	00000004 alt_priority_mask
00012764 g     F .text	00000088 alt_ic_irq_enable
00007edc g     F .text	0000001c __vfprintf_internal
0000eff8 g     F .text	0000005c _wctomb_r
0001197c g     F .text	000008fc .hidden __subdf3
0000a980 g     F .text	000000b0 __lo0bits
00018094 g     O .rwdata	00000008 alt_alarm_list
00015350 g     F .text	00000060 _do_ctors
00001110 g     F .text	00000068 updateValue
0000ef08 g     F .text	000000c0 wcrtomb
0001251c g     F .text	000000d8 close
00012b04 g     F .text	00000084 alt_load
0000ec94 g     F .text	00000080 fputwc
00001aa0 g     F .text	00000004 __sinit_lock_acquire
0000a6cc g     F .text	00000148 __multadd
00019d0e g     O .bss	00000002 value
0000a6a4 g     F .text	00000028 _Bfree



Disassembly of section .entry:

00000000 <__reset>:
 * Jump to the _start entry point in the .text section if reset code
 * is allowed or if optimizing for RTL simulation.
 */
#if defined(ALT_ALLOW_CODE_AT_RESET) || defined(ALT_SIM_OPTIMIZE)
    /* Jump to the _start entry point in the .text section. */
    movhi r1, %hi(_start)
   0:	00400034 	movhi	at,0
    ori r1, r1, %lo(_start)
   4:	08408c14 	ori	at,at,560
    jmp r1
   8:	0800683a 	jmp	at
	...

Disassembly of section .exceptions:

00000020 <alt_exception>:

#else /* ALT_EXCEPTION_STACK disabled */
        /* 
         * Reserve space on normal stack for registers about to be pushed.
         */
        addi  sp, sp, -76
  20:	deffed04 	addi	sp,sp,-76
         * documentation for details).
         *
         * Leave a gap in the stack frame at 4(sp) for the muldiv handler to
         * store zero into.
         */
        stw   ra,  0(sp)
  24:	dfc00015 	stw	ra,0(sp)
        stw   r1,   8(sp)
  28:	d8400215 	stw	at,8(sp)
        stw   r2,  12(sp)
  2c:	d8800315 	stw	r2,12(sp)
        stw   r3,  16(sp)
  30:	d8c00415 	stw	r3,16(sp)
        stw   r4,  20(sp)
  34:	d9000515 	stw	r4,20(sp)
        stw   r5,  24(sp)
  38:	d9400615 	stw	r5,24(sp)
        stw   r6,  28(sp)
  3c:	d9800715 	stw	r6,28(sp)
        stw   r7,  32(sp)
  40:	d9c00815 	stw	r7,32(sp)
        rdctl r5, estatus   /* Read early to avoid usage stall */
  44:	000b307a 	rdctl	r5,estatus
        stw   r8,  36(sp)
  48:	da000915 	stw	r8,36(sp)
        stw   r9,  40(sp)
  4c:	da400a15 	stw	r9,40(sp)
        stw   r10, 44(sp)
  50:	da800b15 	stw	r10,44(sp)
        stw   r11, 48(sp)
  54:	dac00c15 	stw	r11,48(sp)
        stw   r12, 52(sp)
  58:	db000d15 	stw	r12,52(sp)
        stw   r13, 56(sp)
  5c:	db400e15 	stw	r13,56(sp)
        stw   r14, 60(sp)
  60:	db800f15 	stw	r14,60(sp)
        stw   r15, 64(sp)
  64:	dbc01015 	stw	r15,64(sp)
        /*
         * ea-4 contains the address of the instruction being executed
         * when the exception occured. For interrupt exceptions, we will
         * will be re-issue the isntruction. Store it in 72(sp)
         */
        stw   r5,  68(sp)  /* estatus */
  68:	d9401115 	stw	r5,68(sp)
        addi  r15, ea, -4  /* instruction that caused exception */
  6c:	ebffff04 	addi	r15,ea,-4
        stw   r15,  72(sp)
  70:	dbc01215 	stw	r15,72(sp)
#else
        /*
         * Test to see if the exception was a software exception or caused 
         * by an external interrupt, and vector accordingly.
         */
        rdctl r4, ipending
  74:	0009313a 	rdctl	r4,ipending
        andi  r2, r5, 1
  78:	2880004c 	andi	r2,r5,1
        beq   r2, zero, .Lnot_irq
  7c:	10000326 	beq	r2,zero,8c <alt_exception+0x6c>
        beq   r4, zero, .Lnot_irq
  80:	20000226 	beq	r4,zero,8c <alt_exception+0x6c>
        /*
         * Now that all necessary registers have been preserved, call 
         * alt_irq_handler() to process the interrupts.
         */

        call alt_irq_handler
  84:	00000fc0 	call	fc <alt_irq_handler>

        .section .exceptions.irqreturn, "xa"

        br    .Lexception_exit
  88:	00000706 	br	a8 <alt_exception+0x88>
         * upon completion, so we write ea (address of instruction *after*
         * the one where the exception occured) into 72(sp). The actual
         * instruction that caused the exception is written in r2, which these
         * handlers will utilize.
         */
        stw ea, 72(sp) /* EA is PC+4 so will skip over instruction causing exception */
  8c:	df401215 	stw	ea,72(sp)
.Lunknown_16bit:
        addi.n r4, r4, 2 /* Need PC+2 to skip over instruction causing exception */
        stw r4, 72(sp)

#else /* CDX is not Enabled and all instructions are 32bits */
        ldw r2, -4(ea) /* Instruction value that caused exception */
  90:	e8bfff17 	ldw	r2,-4(ea)
         * debugger is present) or go into an infinite loop since the
         * handling behavior is undefined; in that case we will not return here.
         */

        /* Load exception-causing address as first argument (r4) */
        addi   r4, ea, -4
  94:	e93fff04 	addi	r4,ea,-4

        /* Call the instruction-exception entry */
        call   alt_instruction_exception_entry
  98:	00001d00 	call	1d0 <alt_instruction_exception_entry>
         * instruction
         *
         * Return code was 0: Skip. The instruction after the exception is
         * already stored in 72(sp).
         */
        bne   r2, r0, .Lexception_exit
  9c:	1000021e 	bne	r2,zero,a8 <alt_exception+0x88>

        /*
         * Otherwise, modify 72(sp) to re-issue the instruction that caused the
         * exception.
         */
        addi  r15, ea, -4  /* instruction that caused exception */
  a0:	ebffff04 	addi	r15,ea,-4
        stw   r15,  72(sp)
  a4:	dbc01215 	stw	r15,72(sp)
        /* 
         * Restore the saved registers, so that all general purpose registers 
         * have been restored to their state at the time the interrupt occured.
         */

        ldw   r5,  68(sp)
  a8:	d9401117 	ldw	r5,68(sp)
        ldw   ea,  72(sp)  /* This becomes the PC once eret is executed */
  ac:	df401217 	ldw	ea,72(sp)
        ldw   ra,   0(sp)
  b0:	dfc00017 	ldw	ra,0(sp)

        wrctl estatus, r5
  b4:	2801707a 	wrctl	estatus,r5

        ldw   r1,   8(sp)
  b8:	d8400217 	ldw	at,8(sp)
        ldw   r2,  12(sp)
  bc:	d8800317 	ldw	r2,12(sp)
        ldw   r3,  16(sp)
  c0:	d8c00417 	ldw	r3,16(sp)
        ldw   r4,  20(sp)
  c4:	d9000517 	ldw	r4,20(sp)
        ldw   r5,  24(sp)
  c8:	d9400617 	ldw	r5,24(sp)
        ldw   r6,  28(sp)
  cc:	d9800717 	ldw	r6,28(sp)
        ldw   r7,  32(sp)
  d0:	d9c00817 	ldw	r7,32(sp)

#if defined(ALT_EXCEPTION_STACK) && defined(ALT_STACK_CHECK)
        ldw   et, %gprel(alt_exception_old_stack_limit)(gp)
#endif

        ldw   r8,  36(sp)
  d4:	da000917 	ldw	r8,36(sp)
        ldw   r9,  40(sp)
  d8:	da400a17 	ldw	r9,40(sp)
        ldw   r10, 44(sp)
  dc:	da800b17 	ldw	r10,44(sp)
        ldw   r11, 48(sp)
  e0:	dac00c17 	ldw	r11,48(sp)
        ldw   r12, 52(sp)
  e4:	db000d17 	ldw	r12,52(sp)
        ldw   r13, 56(sp)
  e8:	db400e17 	ldw	r13,56(sp)
        ldw   r14, 60(sp)
  ec:	db800f17 	ldw	r14,60(sp)
        ldw   r15, 64(sp)
  f0:	dbc01017 	ldw	r15,64(sp)
        stw   et, %gprel(alt_stack_limit_value)(gp)
        stw   zero, %gprel(alt_exception_old_stack_limit)(gp)
#endif /* ALT_STACK_CHECK */
        ldw   sp,  76(sp)
#else /* ALT_EXCEPTION_STACK disabled */
        addi  sp, sp, 76
  f4:	dec01304 	addi	sp,sp,76

        /*
         * Return to the interrupted instruction.
         */

        eret
  f8:	ef80083a 	eret

000000fc <alt_irq_handler>:
 * instruction is present if the macro ALT_CI_INTERRUPT_VECTOR defined.
 */

void alt_irq_handler (void) __attribute__ ((section (".exceptions")));
void alt_irq_handler (void)
{
  fc:	defff904 	addi	sp,sp,-28
 100:	dfc00615 	stw	ra,24(sp)
 104:	df000515 	stw	fp,20(sp)
 108:	df000504 	addi	fp,sp,20
  
  /*
   * Notify the operating system that we are at interrupt level.
   */ 
  
  ALT_OS_INT_ENTER();
 10c:	0001883a 	nop
#ifndef NIOS2_EIC_PRESENT
static ALT_INLINE alt_u32 ALT_ALWAYS_INLINE alt_irq_pending (void)
{
  alt_u32 active;

  NIOS2_READ_IPENDING (active);
 110:	0005313a 	rdctl	r2,ipending
 114:	e0bffe15 	stw	r2,-8(fp)

  return active;
 118:	e0bffe17 	ldw	r2,-8(fp)
   * Consider the case where the high priority interupt is asserted during
   * the interrupt entry sequence for a lower priority interrupt to see why
   * this is the case.
   */

  active = alt_irq_pending ();
 11c:	e0bffb15 	stw	r2,-20(fp)

  do
  {
    i = 0;
 120:	e03ffd15 	stw	zero,-12(fp)
    mask = 1;
 124:	00800044 	movi	r2,1
 128:	e0bffc15 	stw	r2,-16(fp)
     * called to clear the interrupt condition.
     */

    do
    {
      if (active & mask)
 12c:	e0fffb17 	ldw	r3,-20(fp)
 130:	e0bffc17 	ldw	r2,-16(fp)
 134:	1884703a 	and	r2,r3,r2
 138:	10001426 	beq	r2,zero,18c <alt_irq_handler+0x90>
      { 
#ifdef ALT_ENHANCED_INTERRUPT_API_PRESENT
        alt_irq[i].handler(alt_irq[i].context); 
 13c:	008000b4 	movhi	r2,2
 140:	10a76004 	addi	r2,r2,-25216
 144:	e0fffd17 	ldw	r3,-12(fp)
 148:	180690fa 	slli	r3,r3,3
 14c:	10c5883a 	add	r2,r2,r3
 150:	10c00017 	ldw	r3,0(r2)
 154:	008000b4 	movhi	r2,2
 158:	10a76004 	addi	r2,r2,-25216
 15c:	e13ffd17 	ldw	r4,-12(fp)
 160:	200890fa 	slli	r4,r4,3
 164:	1105883a 	add	r2,r2,r4
 168:	10800104 	addi	r2,r2,4
 16c:	10800017 	ldw	r2,0(r2)
 170:	1009883a 	mov	r4,r2
 174:	183ee83a 	callr	r3
#else
        alt_irq[i].handler(alt_irq[i].context, i); 
#endif
        break;
 178:	0001883a 	nop
#ifndef NIOS2_EIC_PRESENT
static ALT_INLINE alt_u32 ALT_ALWAYS_INLINE alt_irq_pending (void)
{
  alt_u32 active;

  NIOS2_READ_IPENDING (active);
 17c:	0005313a 	rdctl	r2,ipending
 180:	e0bfff15 	stw	r2,-4(fp)

  return active;
 184:	e0bfff17 	ldw	r2,-4(fp)
 188:	00000706 	br	1a8 <alt_irq_handler+0xac>
      }
      mask <<= 1;
 18c:	e0bffc17 	ldw	r2,-16(fp)
 190:	1085883a 	add	r2,r2,r2
 194:	e0bffc15 	stw	r2,-16(fp)
      i++;
 198:	e0bffd17 	ldw	r2,-12(fp)
 19c:	10800044 	addi	r2,r2,1
 1a0:	e0bffd15 	stw	r2,-12(fp)

    } while (1);
 1a4:	003fe106 	br	12c <__alt_data_end+0xf800012c>

    active = alt_irq_pending ();
 1a8:	e0bffb15 	stw	r2,-20(fp)
    
  } while (active);
 1ac:	e0bffb17 	ldw	r2,-20(fp)
 1b0:	103fdb1e 	bne	r2,zero,120 <__alt_data_end+0xf8000120>

  /*
   * Notify the operating system that interrupt processing is complete.
   */ 

  ALT_OS_INT_EXIT();
 1b4:	0001883a 	nop
}
 1b8:	0001883a 	nop
 1bc:	e037883a 	mov	sp,fp
 1c0:	dfc00117 	ldw	ra,4(sp)
 1c4:	df000017 	ldw	fp,0(sp)
 1c8:	dec00204 	addi	sp,sp,8
 1cc:	f800283a 	ret

000001d0 <alt_instruction_exception_entry>:
 * that handler if it has been registered. Absent a handler, it will
 * break break or hang as discussed below.
 */
int 
alt_instruction_exception_entry (alt_u32 exception_pc)
{
 1d0:	defffb04 	addi	sp,sp,-20
 1d4:	dfc00415 	stw	ra,16(sp)
 1d8:	df000315 	stw	fp,12(sp)
 1dc:	df000304 	addi	fp,sp,12
 1e0:	e13fff15 	stw	r4,-4(fp)
  cause = ( (cause & NIOS2_EXCEPTION_REG_CAUSE_MASK) >>
              NIOS2_EXCEPTION_REG_CAUSE_OFST );

  NIOS2_READ_BADADDR(badaddr);
#else
  cause = NIOS2_EXCEPTION_CAUSE_NOT_PRESENT;
 1e4:	00bfffc4 	movi	r2,-1
 1e8:	e0bffd15 	stw	r2,-12(fp)
  badaddr = 0;
 1ec:	e03ffe15 	stw	zero,-8(fp)
#endif /* NIOS2_HAS_EXTRA_EXCEPTION_INFO */

  if(alt_instruction_exception_handler) {
 1f0:	d0a73e17 	ldw	r2,-25352(gp)
 1f4:	10000726 	beq	r2,zero,214 <alt_instruction_exception_entry+0x44>
     * Call handler. Its return value indicates whether the exception-causing
     * instruction should be re-issued. The code that called us,
     * alt_eceptions_entry.S, will look at this value and adjust the ea
     * register as necessary
     */
    return alt_instruction_exception_handler(cause, exception_pc, badaddr);
 1f8:	d0a73e17 	ldw	r2,-25352(gp)
 1fc:	e0fffd17 	ldw	r3,-12(fp)
 200:	e1bffe17 	ldw	r6,-8(fp)
 204:	e17fff17 	ldw	r5,-4(fp)
 208:	1809883a 	mov	r4,r3
 20c:	103ee83a 	callr	r2
 210:	00000206 	br	21c <alt_instruction_exception_entry+0x4c>
   *    (a peripheral which negates its interrupt output before its
   *    interrupt handler has been executed will cause spurious interrupts)
   */
  else {
#ifdef NIOS2_HAS_DEBUG_STUB
    NIOS2_BREAK();
 214:	003da03a 	break	0
      ;
#endif /* NIOS2_HAS_DEBUG_STUB */
  }

  /* We should not get here. Remove compiler warning. */
  return NIOS2_EXCEPTION_RETURN_REISSUE_INST;
 218:	0005883a 	mov	r2,zero
}
 21c:	e037883a 	mov	sp,fp
 220:	dfc00117 	ldw	ra,4(sp)
 224:	df000017 	ldw	fp,0(sp)
 228:	dec00204 	addi	sp,sp,8
 22c:	f800283a 	ret

Disassembly of section .text:

00000230 <_start>:

    /*
     * Now that the caches are initialized, set up the stack pointer and global pointer.
     * The values provided by the linker are assumed to be correctly aligned.
     */
    movhi sp, %hi(__alt_stack_pointer)
     230:	06c20034 	movhi	sp,2048
    ori sp, sp, %lo(__alt_stack_pointer)
     234:	dec00014 	ori	sp,sp,0
    movhi gp, %hi(_gp)
     238:	068000b4 	movhi	gp,2
    ori gp, gp, %lo(_gp)
     23c:	d6801514 	ori	gp,gp,84
 */
#ifndef ALT_SIM_OPTIMIZE
    /* Log that the BSS is about to be cleared. */
    ALT_LOG_PUTS(alt_log_msg_bss)

    movhi r2, %hi(__bss_start)
     240:	00800074 	movhi	r2,1
    ori r2, r2, %lo(__bss_start)
     244:	10a74214 	ori	r2,r2,40200

    movhi r3, %hi(__bss_end)
     248:	00c00074 	movhi	r3,1
    ori r3, r3, %lo(__bss_end)
     24c:	18e7a014 	ori	r3,r3,40576

    beq r2, r3, 1f
     250:	10c00326 	beq	r2,r3,260 <_start+0x30>

0:
    stw zero, (r2)
     254:	10000015 	stw	zero,0(r2)
    addi r2, r2, 4
     258:	10800104 	addi	r2,r2,4
    bltu r2, r3, 0b
     25c:	10fffd36 	bltu	r2,r3,254 <__alt_data_end+0xf8000254>
     * section aren't defined until alt_load() has been called).
     */
    mov   et, zero
#endif

    call alt_load
     260:	0012b040 	call	12b04 <alt_load>

    /* Log that alt_main is about to be called. */
    ALT_LOG_PUTS(alt_log_msg_alt_main)

    /* Call the C entry point. It should never return. */
    call alt_main
     264:	0012ca00 	call	12ca0 <alt_main>

00000268 <alt_after_alt_main>:

    /* Wait in infinite loop in case alt_main does return. */
alt_after_alt_main:
    br alt_after_alt_main
     268:	003fff06 	br	268 <__alt_data_end+0xf8000268>

0000026c <customPrintf>:

FILE * fp;
char buffer[32] = "C              \nP               ";


void customPrintf(){
     26c:	defffe04 	addi	sp,sp,-8
     270:	dfc00115 	stw	ra,4(sp)
     274:	df000015 	stw	fp,0(sp)
     278:	d839883a 	mov	fp,sp
	fprintf(fp,"\x1B[2J");
     27c:	d0a72d17 	ldw	r2,-25420(gp)
     280:	100f883a 	mov	r7,r2
     284:	01800104 	movi	r6,4
     288:	01400044 	movi	r5,1
     28c:	01000074 	movhi	r4,1
     290:	21177904 	addi	r4,r4,24036
     294:	00027a40 	call	27a4 <fwrite>
	fprintf(fp,"%.*s",32,buffer);
     298:	d0a72d17 	ldw	r2,-25420(gp)
     29c:	01c00074 	movhi	r7,1
     2a0:	39d90e04 	addi	r7,r7,25656
     2a4:	01800804 	movi	r6,32
     2a8:	01400074 	movhi	r5,1
     2ac:	29577b04 	addi	r5,r5,24044
     2b0:	1009883a 	mov	r4,r2
     2b4:	0001c0c0 	call	1c0c <fprintf>
	fflush(fp);
     2b8:	d0a72d17 	ldw	r2,-25420(gp)
     2bc:	1009883a 	mov	r4,r2
     2c0:	00016f80 	call	16f8 <fflush>

}
     2c4:	0001883a 	nop
     2c8:	e037883a 	mov	sp,fp
     2cc:	dfc00117 	ldw	ra,4(sp)
     2d0:	df000017 	ldw	fp,0(sp)
     2d4:	dec00204 	addi	sp,sp,8
     2d8:	f800283a 	ret

000002dc <initLCD>:

void initLCD(){
     2dc:	defffe04 	addi	sp,sp,-8
     2e0:	dfc00115 	stw	ra,4(sp)
     2e4:	df000015 	stw	fp,0(sp)
     2e8:	d839883a 	mov	fp,sp
	fp = fopen("/dev/lcd_16207_0", "w");
     2ec:	01400074 	movhi	r5,1
     2f0:	29577d04 	addi	r5,r5,24052
     2f4:	01000074 	movhi	r4,1
     2f8:	21177e04 	addi	r4,r4,24056
     2fc:	0001bcc0 	call	1bcc <fopen>
     300:	d0a72d15 	stw	r2,-25420(gp)
	fprintf(fp,"\x1B[2J");
     304:	d0a72d17 	ldw	r2,-25420(gp)
     308:	100f883a 	mov	r7,r2
     30c:	01800104 	movi	r6,4
     310:	01400044 	movi	r5,1
     314:	01000074 	movhi	r4,1
     318:	21177904 	addi	r4,r4,24036
     31c:	00027a40 	call	27a4 <fwrite>

}
     320:	0001883a 	nop
     324:	e037883a 	mov	sp,fp
     328:	dfc00117 	ldw	ra,4(sp)
     32c:	df000017 	ldw	fp,0(sp)
     330:	dec00204 	addi	sp,sp,8
     334:	f800283a 	ret

00000338 <writeCaracter>:


void writeCaracter(char caracter,char pos){
     338:	defffd04 	addi	sp,sp,-12
     33c:	df000215 	stw	fp,8(sp)
     340:	df000204 	addi	fp,sp,8
     344:	2007883a 	mov	r3,r4
     348:	2805883a 	mov	r2,r5
     34c:	e0fffe05 	stb	r3,-8(fp)
     350:	e0bfff05 	stb	r2,-4(fp)
	buffer[pos] = caracter;
     354:	e0ffff07 	ldb	r3,-4(fp)
     358:	00800074 	movhi	r2,1
     35c:	10990e04 	addi	r2,r2,25656
     360:	10c5883a 	add	r2,r2,r3
     364:	e0fffe03 	ldbu	r3,-8(fp)
     368:	10c00005 	stb	r3,0(r2)

}
     36c:	0001883a 	nop
     370:	e037883a 	mov	sp,fp
     374:	df000017 	ldw	fp,0(sp)
     378:	dec00104 	addi	sp,sp,4
     37c:	f800283a 	ret

00000380 <writeOnOff>:

void writeOnOff(char etat){
     380:	defffd04 	addi	sp,sp,-12
     384:	dfc00215 	stw	ra,8(sp)
     388:	df000115 	stw	fp,4(sp)
     38c:	df000104 	addi	fp,sp,4
     390:	2005883a 	mov	r2,r4
     394:	e0bfff05 	stb	r2,-4(fp)
	if(!etat)
     398:	e0bfff07 	ldb	r2,-4(fp)
     39c:	10000a1e 	bne	r2,zero,3c8 <writeOnOff+0x48>
	{
		writeCaracter('O',12);
     3a0:	01400304 	movi	r5,12
     3a4:	010013c4 	movi	r4,79
     3a8:	00003380 	call	338 <writeCaracter>
		writeCaracter('N',13);
     3ac:	01400344 	movi	r5,13
     3b0:	01001384 	movi	r4,78
     3b4:	00003380 	call	338 <writeCaracter>
		writeCaracter(' ',14);
     3b8:	01400384 	movi	r5,14
     3bc:	01000804 	movi	r4,32
     3c0:	00003380 	call	338 <writeCaracter>
     3c4:	00000906 	br	3ec <writeOnOff+0x6c>

	}
	else
	{
		writeCaracter('O',12);
     3c8:	01400304 	movi	r5,12
     3cc:	010013c4 	movi	r4,79
     3d0:	00003380 	call	338 <writeCaracter>
		writeCaracter('F',13);
     3d4:	01400344 	movi	r5,13
     3d8:	01001184 	movi	r4,70
     3dc:	00003380 	call	338 <writeCaracter>
		writeCaracter('F',14);
     3e0:	01400384 	movi	r5,14
     3e4:	01001184 	movi	r4,70
     3e8:	00003380 	call	338 <writeCaracter>
	}
	customPrintf();
     3ec:	000026c0 	call	26c <customPrintf>
}
     3f0:	0001883a 	nop
     3f4:	e037883a 	mov	sp,fp
     3f8:	dfc00117 	ldw	ra,4(sp)
     3fc:	df000017 	ldw	fp,0(sp)
     400:	dec00204 	addi	sp,sp,8
     404:	f800283a 	ret

00000408 <writeCanal>:

void writeCanal(char num){
     408:	defffc04 	addi	sp,sp,-16
     40c:	dfc00315 	stw	ra,12(sp)
     410:	df000215 	stw	fp,8(sp)
     414:	df000204 	addi	fp,sp,8
     418:	2005883a 	mov	r2,r4
     41c:	e0bfff05 	stb	r2,-4(fp)
	char snum[2];
	if (num >= 0 && num <= 23){
     420:	e0bfff07 	ldb	r2,-4(fp)
     424:	10001816 	blt	r2,zero,488 <writeCanal+0x80>
     428:	e0bfff07 	ldb	r2,-4(fp)
     42c:	10800608 	cmpgei	r2,r2,24
     430:	1000151e 	bne	r2,zero,488 <writeCanal+0x80>
	sprintf(snum, "%0.2d", num);
     434:	e0bfff07 	ldb	r2,-4(fp)
     438:	100d883a 	mov	r6,r2
     43c:	01400074 	movhi	r5,1
     440:	29578304 	addi	r5,r5,24076
     444:	e13ffe04 	addi	r4,fp,-8
     448:	00037040 	call	3704 <sprintf>
	writeCaracter(snum[0],2);
     44c:	e0bffe03 	ldbu	r2,-8(fp)
     450:	10803fcc 	andi	r2,r2,255
     454:	1080201c 	xori	r2,r2,128
     458:	10bfe004 	addi	r2,r2,-128
     45c:	01400084 	movi	r5,2
     460:	1009883a 	mov	r4,r2
     464:	00003380 	call	338 <writeCaracter>
	writeCaracter(snum[1],3);
     468:	e0bffe43 	ldbu	r2,-7(fp)
     46c:	10803fcc 	andi	r2,r2,255
     470:	1080201c 	xori	r2,r2,128
     474:	10bfe004 	addi	r2,r2,-128
     478:	014000c4 	movi	r5,3
     47c:	1009883a 	mov	r4,r2
     480:	00003380 	call	338 <writeCaracter>
	customPrintf();
     484:	000026c0 	call	26c <customPrintf>
	}
}
     488:	0001883a 	nop
     48c:	e037883a 	mov	sp,fp
     490:	dfc00117 	ldw	ra,4(sp)
     494:	df000017 	ldw	fp,0(sp)
     498:	dec00204 	addi	sp,sp,8
     49c:	f800283a 	ret

000004a0 <writeTon>:

void writeTon(int Ton){
     4a0:	defffc04 	addi	sp,sp,-16
     4a4:	dfc00315 	stw	ra,12(sp)
     4a8:	df000215 	stw	fp,8(sp)
     4ac:	df000204 	addi	fp,sp,8
     4b0:	e13fff15 	stw	r4,-4(fp)
	char snum[4];
	sprintf(snum, "%0.4d", Ton);
     4b4:	e1bfff17 	ldw	r6,-4(fp)
     4b8:	01400074 	movhi	r5,1
     4bc:	29578504 	addi	r5,r5,24084
     4c0:	e13ffe04 	addi	r4,fp,-8
     4c4:	00037040 	call	3704 <sprintf>
	writeCaracter(snum[0], 18);
     4c8:	e0bffe03 	ldbu	r2,-8(fp)
     4cc:	10803fcc 	andi	r2,r2,255
     4d0:	1080201c 	xori	r2,r2,128
     4d4:	10bfe004 	addi	r2,r2,-128
     4d8:	01400484 	movi	r5,18
     4dc:	1009883a 	mov	r4,r2
     4e0:	00003380 	call	338 <writeCaracter>
	writeCaracter(snum[1], 19);
     4e4:	e0bffe43 	ldbu	r2,-7(fp)
     4e8:	10803fcc 	andi	r2,r2,255
     4ec:	1080201c 	xori	r2,r2,128
     4f0:	10bfe004 	addi	r2,r2,-128
     4f4:	014004c4 	movi	r5,19
     4f8:	1009883a 	mov	r4,r2
     4fc:	00003380 	call	338 <writeCaracter>
	writeCaracter(snum[2], 20);
     500:	e0bffe83 	ldbu	r2,-6(fp)
     504:	10803fcc 	andi	r2,r2,255
     508:	1080201c 	xori	r2,r2,128
     50c:	10bfe004 	addi	r2,r2,-128
     510:	01400504 	movi	r5,20
     514:	1009883a 	mov	r4,r2
     518:	00003380 	call	338 <writeCaracter>
	writeCaracter(snum[3], 21);
     51c:	e0bffec3 	ldbu	r2,-5(fp)
     520:	10803fcc 	andi	r2,r2,255
     524:	1080201c 	xori	r2,r2,128
     528:	10bfe004 	addi	r2,r2,-128
     52c:	01400544 	movi	r5,21
     530:	1009883a 	mov	r4,r2
     534:	00003380 	call	338 <writeCaracter>
	customPrintf();
     538:	000026c0 	call	26c <customPrintf>
}
     53c:	0001883a 	nop
     540:	e037883a 	mov	sp,fp
     544:	dfc00117 	ldw	ra,4(sp)
     548:	df000017 	ldw	fp,0(sp)
     54c:	dec00204 	addi	sp,sp,8
     550:	f800283a 	ret

00000554 <main>:
void boutonInterupt(void * isr_context);
void initInterupt();
int edge_capture;				// Variable d'etat boutons poussoirs

int main()
{
     554:	defffc04 	addi	sp,sp,-16
     558:	dfc00315 	stw	ra,12(sp)
     55c:	df000215 	stw	fp,8(sp)
     560:	dc000115 	stw	r16,4(sp)
     564:	df000204 	addi	fp,sp,8
  printf("Hello from Nios II!\n");
     568:	01000074 	movhi	r4,1
     56c:	21178704 	addi	r4,r4,24092
     570:	00034540 	call	3454 <puts>




  initLCD();
     574:	00002dc0 	call	2dc <initLCD>
  initPWM();
     578:	00010200 	call	1020 <initPWM>
  initInterupt();
     57c:	0000fb40 	call	fb4 <initInterupt>
  alt_ic_isr_register(BUTTON_IRQ_INTERRUPT_CONTROLLER_ID,BUTTON_IRQ,boutonInterupt,NULL,NULL);
     580:	d8000015 	stw	zero,0(sp)
     584:	000f883a 	mov	r7,zero
     588:	01800034 	movhi	r6,0
     58c:	31839304 	addi	r6,r6,3660
     590:	01400044 	movi	r5,1
     594:	0009883a 	mov	r4,zero
     598:	00127140 	call	12714 <alt_ic_isr_register>
  //updateValue(1,250);
  writeOnOff(1);
     59c:	01000044 	movi	r4,1
     5a0:	00003800 	call	380 <writeOnOff>
  writeCanal(15);
     5a4:	010003c4 	movi	r4,15
     5a8:	00004080 	call	408 <writeCanal>
  writeTon(251);
     5ac:	01003ec4 	movi	r4,251
     5b0:	00004a00 	call	4a0 <writeTon>

  while(1){
      if(numCanal != lastNumCanal){
     5b4:	d0e72e03 	ldbu	r3,-25416(gp)
     5b8:	d0a00003 	ldbu	r2,-32768(gp)
     5bc:	18c03fcc 	andi	r3,r3,255
     5c0:	18c0201c 	xori	r3,r3,128
     5c4:	18ffe004 	addi	r3,r3,-128
     5c8:	10803fcc 	andi	r2,r2,255
     5cc:	1080201c 	xori	r2,r2,128
     5d0:	10bfe004 	addi	r2,r2,-128
     5d4:	18802126 	beq	r3,r2,65c <main+0x108>
          lastNumCanal = numCanal;
     5d8:	d0a72e03 	ldbu	r2,-25416(gp)
     5dc:	d0a00005 	stb	r2,-32768(gp)
          writeCanal(numCanal);
     5e0:	d0a72e03 	ldbu	r2,-25416(gp)
     5e4:	10803fcc 	andi	r2,r2,255
     5e8:	1080201c 	xori	r2,r2,128
     5ec:	10bfe004 	addi	r2,r2,-128
     5f0:	1009883a 	mov	r4,r2
     5f4:	00004080 	call	408 <writeCanal>
          writeOnOff(isOn(numCanal));
     5f8:	d0a72e03 	ldbu	r2,-25416(gp)
     5fc:	10803fcc 	andi	r2,r2,255
     600:	1080201c 	xori	r2,r2,128
     604:	10bfe004 	addi	r2,r2,-128
     608:	1009883a 	mov	r4,r2
     60c:	00011b40 	call	11b4 <isOn>
     610:	10803fcc 	andi	r2,r2,255
     614:	1080201c 	xori	r2,r2,128
     618:	10bfe004 	addi	r2,r2,-128
     61c:	1009883a 	mov	r4,r2
     620:	00003800 	call	380 <writeOnOff>
          writeTon(pwmTon[numCanal]);
     624:	d0a72e03 	ldbu	r2,-25416(gp)
     628:	10c03fcc 	andi	r3,r2,255
     62c:	18c0201c 	xori	r3,r3,128
     630:	18ffe004 	addi	r3,r3,-128
     634:	00800074 	movhi	r2,1
     638:	10991604 	addi	r2,r2,25688
     63c:	18c7883a 	add	r3,r3,r3
     640:	10c5883a 	add	r2,r2,r3
     644:	1080000b 	ldhu	r2,0(r2)
     648:	10bfffcc 	andi	r2,r2,65535
     64c:	10a0001c 	xori	r2,r2,32768
     650:	10a00004 	addi	r2,r2,-32768
     654:	1009883a 	mov	r4,r2
     658:	00004a00 	call	4a0 <writeTon>
      }
      if(newTon){
     65c:	d0a72f0b 	ldhu	r2,-25412(gp)
     660:	10bfffcc 	andi	r2,r2,65535
     664:	10a0001c 	xori	r2,r2,32768
     668:	10a00004 	addi	r2,r2,-32768
     66c:	1001c726 	beq	r2,zero,d8c <main+0x838>
          newTon = 0;
     670:	d0272f0d 	sth	zero,-25412(gp)
          /** traitement increment **/
          switch(increment){
     674:	d0a0008b 	ldhu	r2,-32766(gp)
     678:	10bfffcc 	andi	r2,r2,65535
     67c:	10a0001c 	xori	r2,r2,32768
     680:	10a00004 	addi	r2,r2,-32768
     684:	10c00060 	cmpeqi	r3,r2,1
     688:	18007d1e 	bne	r3,zero,880 <main+0x32c>
     68c:	10c00088 	cmpgei	r3,r2,2
     690:	1800021e 	bne	r3,zero,69c <main+0x148>
     694:	10011026 	beq	r2,zero,ad8 <main+0x584>
     698:	00019a06 	br	d04 <main+0x7b0>
     69c:	10c000a0 	cmpeqi	r3,r2,2
     6a0:	1800251e 	bne	r3,zero,738 <main+0x1e4>
     6a4:	108000e0 	cmpeqi	r2,r2,3
     6a8:	10019626 	beq	r2,zero,d04 <main+0x7b0>
          case 3 :
          	  if(pwmTon[numCanal]<1000){
     6ac:	d0a72e03 	ldbu	r2,-25416(gp)
     6b0:	10c03fcc 	andi	r3,r2,255
     6b4:	18c0201c 	xori	r3,r3,128
     6b8:	18ffe004 	addi	r3,r3,-128
     6bc:	00800074 	movhi	r2,1
     6c0:	10991604 	addi	r2,r2,25688
     6c4:	18c7883a 	add	r3,r3,r3
     6c8:	10c5883a 	add	r2,r2,r3
     6cc:	1080000b 	ldhu	r2,0(r2)
     6d0:	10bfffcc 	andi	r2,r2,65535
     6d4:	10a0001c 	xori	r2,r2,32768
     6d8:	10a00004 	addi	r2,r2,-32768
     6dc:	1080fa08 	cmpgei	r2,r2,1000
     6e0:	10000b1e 	bne	r2,zero,710 <main+0x1bc>
          		  pwmTon[numCanal] = 1000;
     6e4:	d0a72e03 	ldbu	r2,-25416(gp)
     6e8:	10c03fcc 	andi	r3,r2,255
     6ec:	18c0201c 	xori	r3,r3,128
     6f0:	18ffe004 	addi	r3,r3,-128
     6f4:	00800074 	movhi	r2,1
     6f8:	10991604 	addi	r2,r2,25688
     6fc:	18c7883a 	add	r3,r3,r3
     700:	10c5883a 	add	r2,r2,r3
     704:	00c0fa04 	movi	r3,1000
     708:	10c0000d 	sth	r3,0(r2)
          	  }else{
        	  pwmTon[numCanal] = 0;
          	  }
          	  break;
     70c:	00017d06 	br	d04 <main+0x7b0>
          switch(increment){
          case 3 :
          	  if(pwmTon[numCanal]<1000){
          		  pwmTon[numCanal] = 1000;
          	  }else{
        	  pwmTon[numCanal] = 0;
     710:	d0a72e03 	ldbu	r2,-25416(gp)
     714:	10c03fcc 	andi	r3,r2,255
     718:	18c0201c 	xori	r3,r3,128
     71c:	18ffe004 	addi	r3,r3,-128
     720:	00800074 	movhi	r2,1
     724:	10991604 	addi	r2,r2,25688
     728:	18c7883a 	add	r3,r3,r3
     72c:	10c5883a 	add	r2,r2,r3
     730:	1000000d 	sth	zero,0(r2)
          	  }
          	  break;
     734:	00017306 	br	d04 <main+0x7b0>
          case 2 :
        	  if(pwmTon[numCanal]<1000){
     738:	d0a72e03 	ldbu	r2,-25416(gp)
     73c:	10c03fcc 	andi	r3,r2,255
     740:	18c0201c 	xori	r3,r3,128
     744:	18ffe004 	addi	r3,r3,-128
     748:	00800074 	movhi	r2,1
     74c:	10991604 	addi	r2,r2,25688
     750:	18c7883a 	add	r3,r3,r3
     754:	10c5883a 	add	r2,r2,r3
     758:	1080000b 	ldhu	r2,0(r2)
     75c:	10bfffcc 	andi	r2,r2,65535
     760:	10a0001c 	xori	r2,r2,32768
     764:	10a00004 	addi	r2,r2,-32768
     768:	1080fa08 	cmpgei	r2,r2,1000
     76c:	1001641e 	bne	r2,zero,d00 <main+0x7ac>
        	  if((pwmTon[numCanal]/100)%10 ==9){
     770:	d0a72e03 	ldbu	r2,-25416(gp)
     774:	10c03fcc 	andi	r3,r2,255
     778:	18c0201c 	xori	r3,r3,128
     77c:	18ffe004 	addi	r3,r3,-128
     780:	00800074 	movhi	r2,1
     784:	10991604 	addi	r2,r2,25688
     788:	18c7883a 	add	r3,r3,r3
     78c:	10c5883a 	add	r2,r2,r3
     790:	1080000b 	ldhu	r2,0(r2)
     794:	10bfffcc 	andi	r2,r2,65535
     798:	10a0001c 	xori	r2,r2,32768
     79c:	10a00004 	addi	r2,r2,-32768
     7a0:	01401904 	movi	r5,100
     7a4:	1009883a 	mov	r4,r2
     7a8:	00012cc0 	call	12cc <__divsi3>
     7ac:	10bfffcc 	andi	r2,r2,65535
     7b0:	10a0001c 	xori	r2,r2,32768
     7b4:	10a00004 	addi	r2,r2,-32768
     7b8:	01400284 	movi	r5,10
     7bc:	1009883a 	mov	r4,r2
     7c0:	00013500 	call	1350 <__modsi3>
     7c4:	10bfffcc 	andi	r2,r2,65535
     7c8:	10a0001c 	xori	r2,r2,32768
     7cc:	10a00004 	addi	r2,r2,-32768
     7d0:	10800258 	cmpnei	r2,r2,9
     7d4:	1000151e 	bne	r2,zero,82c <main+0x2d8>
        		  pwmTon[numCanal] -=900;
     7d8:	d0a72e03 	ldbu	r2,-25416(gp)
     7dc:	10c03fcc 	andi	r3,r2,255
     7e0:	18c0201c 	xori	r3,r3,128
     7e4:	18ffe004 	addi	r3,r3,-128
     7e8:	d0a72e03 	ldbu	r2,-25416(gp)
     7ec:	11003fcc 	andi	r4,r2,255
     7f0:	2100201c 	xori	r4,r4,128
     7f4:	213fe004 	addi	r4,r4,-128
     7f8:	00800074 	movhi	r2,1
     7fc:	10991604 	addi	r2,r2,25688
     800:	2109883a 	add	r4,r4,r4
     804:	1105883a 	add	r2,r2,r4
     808:	1080000b 	ldhu	r2,0(r2)
     80c:	10bf1f04 	addi	r2,r2,-900
     810:	1009883a 	mov	r4,r2
     814:	00800074 	movhi	r2,1
     818:	10991604 	addi	r2,r2,25688
     81c:	18c7883a 	add	r3,r3,r3
     820:	10c5883a 	add	r2,r2,r3
     824:	1100000d 	sth	r4,0(r2)
        	  }else{
        		  pwmTon[numCanal] +=100;
        	  }
        	  }
        	  break;
     828:	00013506 	br	d00 <main+0x7ac>
          case 2 :
        	  if(pwmTon[numCanal]<1000){
        	  if((pwmTon[numCanal]/100)%10 ==9){
        		  pwmTon[numCanal] -=900;
        	  }else{
        		  pwmTon[numCanal] +=100;
     82c:	d0a72e03 	ldbu	r2,-25416(gp)
     830:	10c03fcc 	andi	r3,r2,255
     834:	18c0201c 	xori	r3,r3,128
     838:	18ffe004 	addi	r3,r3,-128
     83c:	d0a72e03 	ldbu	r2,-25416(gp)
     840:	11003fcc 	andi	r4,r2,255
     844:	2100201c 	xori	r4,r4,128
     848:	213fe004 	addi	r4,r4,-128
     84c:	00800074 	movhi	r2,1
     850:	10991604 	addi	r2,r2,25688
     854:	2109883a 	add	r4,r4,r4
     858:	1105883a 	add	r2,r2,r4
     85c:	1080000b 	ldhu	r2,0(r2)
     860:	10801904 	addi	r2,r2,100
     864:	1009883a 	mov	r4,r2
     868:	00800074 	movhi	r2,1
     86c:	10991604 	addi	r2,r2,25688
     870:	18c7883a 	add	r3,r3,r3
     874:	10c5883a 	add	r2,r2,r3
     878:	1100000d 	sth	r4,0(r2)
        	  }
        	  }
        	  break;
     87c:	00012006 	br	d00 <main+0x7ac>
          case 1 :
        	  if(pwmTon[numCanal]<1000){
     880:	d0a72e03 	ldbu	r2,-25416(gp)
     884:	10c03fcc 	andi	r3,r2,255
     888:	18c0201c 	xori	r3,r3,128
     88c:	18ffe004 	addi	r3,r3,-128
     890:	00800074 	movhi	r2,1
     894:	10991604 	addi	r2,r2,25688
     898:	18c7883a 	add	r3,r3,r3
     89c:	10c5883a 	add	r2,r2,r3
     8a0:	1080000b 	ldhu	r2,0(r2)
     8a4:	10bfffcc 	andi	r2,r2,65535
     8a8:	10a0001c 	xori	r2,r2,32768
     8ac:	10a00004 	addi	r2,r2,-32768
     8b0:	1080fa08 	cmpgei	r2,r2,1000
     8b4:	1000441e 	bne	r2,zero,9c8 <main+0x474>
        	          	  if((pwmTon[numCanal]/10)%10 ==9){
     8b8:	d0a72e03 	ldbu	r2,-25416(gp)
     8bc:	10c03fcc 	andi	r3,r2,255
     8c0:	18c0201c 	xori	r3,r3,128
     8c4:	18ffe004 	addi	r3,r3,-128
     8c8:	00800074 	movhi	r2,1
     8cc:	10991604 	addi	r2,r2,25688
     8d0:	18c7883a 	add	r3,r3,r3
     8d4:	10c5883a 	add	r2,r2,r3
     8d8:	1080000b 	ldhu	r2,0(r2)
     8dc:	10bfffcc 	andi	r2,r2,65535
     8e0:	10a0001c 	xori	r2,r2,32768
     8e4:	10a00004 	addi	r2,r2,-32768
     8e8:	01400284 	movi	r5,10
     8ec:	1009883a 	mov	r4,r2
     8f0:	00012cc0 	call	12cc <__divsi3>
     8f4:	10bfffcc 	andi	r2,r2,65535
     8f8:	10a0001c 	xori	r2,r2,32768
     8fc:	10a00004 	addi	r2,r2,-32768
     900:	01400284 	movi	r5,10
     904:	1009883a 	mov	r4,r2
     908:	00013500 	call	1350 <__modsi3>
     90c:	10bfffcc 	andi	r2,r2,65535
     910:	10a0001c 	xori	r2,r2,32768
     914:	10a00004 	addi	r2,r2,-32768
     918:	10800258 	cmpnei	r2,r2,9
     91c:	1000151e 	bne	r2,zero,974 <main+0x420>
        	          		  pwmTon[numCanal] -=90;
     920:	d0a72e03 	ldbu	r2,-25416(gp)
     924:	10c03fcc 	andi	r3,r2,255
     928:	18c0201c 	xori	r3,r3,128
     92c:	18ffe004 	addi	r3,r3,-128
     930:	d0a72e03 	ldbu	r2,-25416(gp)
     934:	11003fcc 	andi	r4,r2,255
     938:	2100201c 	xori	r4,r4,128
     93c:	213fe004 	addi	r4,r4,-128
     940:	00800074 	movhi	r2,1
     944:	10991604 	addi	r2,r2,25688
     948:	2109883a 	add	r4,r4,r4
     94c:	1105883a 	add	r2,r2,r4
     950:	1080000b 	ldhu	r2,0(r2)
     954:	10bfe984 	addi	r2,r2,-90
     958:	1009883a 	mov	r4,r2
     95c:	00800074 	movhi	r2,1
     960:	10991604 	addi	r2,r2,25688
     964:	18c7883a 	add	r3,r3,r3
     968:	10c5883a 	add	r2,r2,r3
     96c:	1100000d 	sth	r4,0(r2)
        	          		        	          		  pwmTon[numCanal] -=20;
        	          		        	          	  }else{
        	          		        	          		  pwmTon[numCanal] +=10;
        	          		        	          	  }
        	          	  }
        	  break;
     970:	0000e406 	br	d04 <main+0x7b0>
          case 1 :
        	  if(pwmTon[numCanal]<1000){
        	          	  if((pwmTon[numCanal]/10)%10 ==9){
        	          		  pwmTon[numCanal] -=90;
        	          	  }else{
        	          		  pwmTon[numCanal] +=10;
     974:	d0a72e03 	ldbu	r2,-25416(gp)
     978:	10c03fcc 	andi	r3,r2,255
     97c:	18c0201c 	xori	r3,r3,128
     980:	18ffe004 	addi	r3,r3,-128
     984:	d0a72e03 	ldbu	r2,-25416(gp)
     988:	11003fcc 	andi	r4,r2,255
     98c:	2100201c 	xori	r4,r4,128
     990:	213fe004 	addi	r4,r4,-128
     994:	00800074 	movhi	r2,1
     998:	10991604 	addi	r2,r2,25688
     99c:	2109883a 	add	r4,r4,r4
     9a0:	1105883a 	add	r2,r2,r4
     9a4:	1080000b 	ldhu	r2,0(r2)
     9a8:	10800284 	addi	r2,r2,10
     9ac:	1009883a 	mov	r4,r2
     9b0:	00800074 	movhi	r2,1
     9b4:	10991604 	addi	r2,r2,25688
     9b8:	18c7883a 	add	r3,r3,r3
     9bc:	10c5883a 	add	r2,r2,r3
     9c0:	1100000d 	sth	r4,0(r2)
        	          		        	          		  pwmTon[numCanal] -=20;
        	          		        	          	  }else{
        	          		        	          		  pwmTon[numCanal] +=10;
        	          		        	          	  }
        	          	  }
        	  break;
     9c4:	0000cf06 	br	d04 <main+0x7b0>
        	          		  pwmTon[numCanal] -=90;
        	          	  }else{
        	          		  pwmTon[numCanal] +=10;
        	          	  }
        	          	  }else{
        	          		if((pwmTon[numCanal]/10)%10 ==2){
     9c8:	d0a72e03 	ldbu	r2,-25416(gp)
     9cc:	10c03fcc 	andi	r3,r2,255
     9d0:	18c0201c 	xori	r3,r3,128
     9d4:	18ffe004 	addi	r3,r3,-128
     9d8:	00800074 	movhi	r2,1
     9dc:	10991604 	addi	r2,r2,25688
     9e0:	18c7883a 	add	r3,r3,r3
     9e4:	10c5883a 	add	r2,r2,r3
     9e8:	1080000b 	ldhu	r2,0(r2)
     9ec:	10bfffcc 	andi	r2,r2,65535
     9f0:	10a0001c 	xori	r2,r2,32768
     9f4:	10a00004 	addi	r2,r2,-32768
     9f8:	01400284 	movi	r5,10
     9fc:	1009883a 	mov	r4,r2
     a00:	00012cc0 	call	12cc <__divsi3>
     a04:	10bfffcc 	andi	r2,r2,65535
     a08:	10a0001c 	xori	r2,r2,32768
     a0c:	10a00004 	addi	r2,r2,-32768
     a10:	01400284 	movi	r5,10
     a14:	1009883a 	mov	r4,r2
     a18:	00013500 	call	1350 <__modsi3>
     a1c:	10bfffcc 	andi	r2,r2,65535
     a20:	10a0001c 	xori	r2,r2,32768
     a24:	10a00004 	addi	r2,r2,-32768
     a28:	10800098 	cmpnei	r2,r2,2
     a2c:	1000151e 	bne	r2,zero,a84 <main+0x530>
        	          		        	          		  pwmTon[numCanal] -=20;
     a30:	d0a72e03 	ldbu	r2,-25416(gp)
     a34:	10c03fcc 	andi	r3,r2,255
     a38:	18c0201c 	xori	r3,r3,128
     a3c:	18ffe004 	addi	r3,r3,-128
     a40:	d0a72e03 	ldbu	r2,-25416(gp)
     a44:	11003fcc 	andi	r4,r2,255
     a48:	2100201c 	xori	r4,r4,128
     a4c:	213fe004 	addi	r4,r4,-128
     a50:	00800074 	movhi	r2,1
     a54:	10991604 	addi	r2,r2,25688
     a58:	2109883a 	add	r4,r4,r4
     a5c:	1105883a 	add	r2,r2,r4
     a60:	1080000b 	ldhu	r2,0(r2)
     a64:	10bffb04 	addi	r2,r2,-20
     a68:	1009883a 	mov	r4,r2
     a6c:	00800074 	movhi	r2,1
     a70:	10991604 	addi	r2,r2,25688
     a74:	18c7883a 	add	r3,r3,r3
     a78:	10c5883a 	add	r2,r2,r3
     a7c:	1100000d 	sth	r4,0(r2)
        	          		        	          	  }else{
        	          		        	          		  pwmTon[numCanal] +=10;
        	          		        	          	  }
        	          	  }
        	  break;
     a80:	0000a006 	br	d04 <main+0x7b0>
        	          	  }
        	          	  }else{
        	          		if((pwmTon[numCanal]/10)%10 ==2){
        	          		        	          		  pwmTon[numCanal] -=20;
        	          		        	          	  }else{
        	          		        	          		  pwmTon[numCanal] +=10;
     a84:	d0a72e03 	ldbu	r2,-25416(gp)
     a88:	10c03fcc 	andi	r3,r2,255
     a8c:	18c0201c 	xori	r3,r3,128
     a90:	18ffe004 	addi	r3,r3,-128
     a94:	d0a72e03 	ldbu	r2,-25416(gp)
     a98:	11003fcc 	andi	r4,r2,255
     a9c:	2100201c 	xori	r4,r4,128
     aa0:	213fe004 	addi	r4,r4,-128
     aa4:	00800074 	movhi	r2,1
     aa8:	10991604 	addi	r2,r2,25688
     aac:	2109883a 	add	r4,r4,r4
     ab0:	1105883a 	add	r2,r2,r4
     ab4:	1080000b 	ldhu	r2,0(r2)
     ab8:	10800284 	addi	r2,r2,10
     abc:	1009883a 	mov	r4,r2
     ac0:	00800074 	movhi	r2,1
     ac4:	10991604 	addi	r2,r2,25688
     ac8:	18c7883a 	add	r3,r3,r3
     acc:	10c5883a 	add	r2,r2,r3
     ad0:	1100000d 	sth	r4,0(r2)
        	          		        	          	  }
        	          	  }
        	  break;
     ad4:	00008b06 	br	d04 <main+0x7b0>
          case 0 :
        	  if(pwmTon[numCanal]<1000){
     ad8:	d0a72e03 	ldbu	r2,-25416(gp)
     adc:	10c03fcc 	andi	r3,r2,255
     ae0:	18c0201c 	xori	r3,r3,128
     ae4:	18ffe004 	addi	r3,r3,-128
     ae8:	00800074 	movhi	r2,1
     aec:	10991604 	addi	r2,r2,25688
     af0:	18c7883a 	add	r3,r3,r3
     af4:	10c5883a 	add	r2,r2,r3
     af8:	1080000b 	ldhu	r2,0(r2)
     afc:	10bfffcc 	andi	r2,r2,65535
     b00:	10a0001c 	xori	r2,r2,32768
     b04:	10a00004 	addi	r2,r2,-32768
     b08:	1080fa08 	cmpgei	r2,r2,1000
     b0c:	10003e1e 	bne	r2,zero,c08 <main+0x6b4>
        	          	  if((pwmTon[numCanal]/1)%10 ==9){
     b10:	d0a72e03 	ldbu	r2,-25416(gp)
     b14:	10c03fcc 	andi	r3,r2,255
     b18:	18c0201c 	xori	r3,r3,128
     b1c:	18ffe004 	addi	r3,r3,-128
     b20:	00800074 	movhi	r2,1
     b24:	10991604 	addi	r2,r2,25688
     b28:	18c7883a 	add	r3,r3,r3
     b2c:	10c5883a 	add	r2,r2,r3
     b30:	1080000b 	ldhu	r2,0(r2)
     b34:	10bfffcc 	andi	r2,r2,65535
     b38:	10a0001c 	xori	r2,r2,32768
     b3c:	10a00004 	addi	r2,r2,-32768
     b40:	01400284 	movi	r5,10
     b44:	1009883a 	mov	r4,r2
     b48:	00013500 	call	1350 <__modsi3>
     b4c:	10bfffcc 	andi	r2,r2,65535
     b50:	10a0001c 	xori	r2,r2,32768
     b54:	10a00004 	addi	r2,r2,-32768
     b58:	10800258 	cmpnei	r2,r2,9
     b5c:	1000151e 	bne	r2,zero,bb4 <main+0x660>
        	          		  pwmTon[numCanal] -=9;
     b60:	d0a72e03 	ldbu	r2,-25416(gp)
     b64:	10c03fcc 	andi	r3,r2,255
     b68:	18c0201c 	xori	r3,r3,128
     b6c:	18ffe004 	addi	r3,r3,-128
     b70:	d0a72e03 	ldbu	r2,-25416(gp)
     b74:	11003fcc 	andi	r4,r2,255
     b78:	2100201c 	xori	r4,r4,128
     b7c:	213fe004 	addi	r4,r4,-128
     b80:	00800074 	movhi	r2,1
     b84:	10991604 	addi	r2,r2,25688
     b88:	2109883a 	add	r4,r4,r4
     b8c:	1105883a 	add	r2,r2,r4
     b90:	1080000b 	ldhu	r2,0(r2)
     b94:	10bffdc4 	addi	r2,r2,-9
     b98:	1009883a 	mov	r4,r2
     b9c:	00800074 	movhi	r2,1
     ba0:	10991604 	addi	r2,r2,25688
     ba4:	18c7883a 	add	r3,r3,r3
     ba8:	10c5883a 	add	r2,r2,r3
     bac:	1100000d 	sth	r4,0(r2)
        	                  	          		        	          		  pwmTon[numCanal] -=3;
        	                  	          		        	          	  }else{
        	                  	          		        	          		  pwmTon[numCanal] +=1;
        	                  	          		        	          	  }
        	          	  }
        	  break;
     bb0:	00005406 	br	d04 <main+0x7b0>
          case 0 :
        	  if(pwmTon[numCanal]<1000){
        	          	  if((pwmTon[numCanal]/1)%10 ==9){
        	          		  pwmTon[numCanal] -=9;
        	          	  }else{
        	          		  pwmTon[numCanal] +=1;
     bb4:	d0a72e03 	ldbu	r2,-25416(gp)
     bb8:	10c03fcc 	andi	r3,r2,255
     bbc:	18c0201c 	xori	r3,r3,128
     bc0:	18ffe004 	addi	r3,r3,-128
     bc4:	d0a72e03 	ldbu	r2,-25416(gp)
     bc8:	11003fcc 	andi	r4,r2,255
     bcc:	2100201c 	xori	r4,r4,128
     bd0:	213fe004 	addi	r4,r4,-128
     bd4:	00800074 	movhi	r2,1
     bd8:	10991604 	addi	r2,r2,25688
     bdc:	2109883a 	add	r4,r4,r4
     be0:	1105883a 	add	r2,r2,r4
     be4:	1080000b 	ldhu	r2,0(r2)
     be8:	10800044 	addi	r2,r2,1
     bec:	1009883a 	mov	r4,r2
     bf0:	00800074 	movhi	r2,1
     bf4:	10991604 	addi	r2,r2,25688
     bf8:	18c7883a 	add	r3,r3,r3
     bfc:	10c5883a 	add	r2,r2,r3
     c00:	1100000d 	sth	r4,0(r2)
        	                  	          		        	          		  pwmTon[numCanal] -=3;
        	                  	          		        	          	  }else{
        	                  	          		        	          		  pwmTon[numCanal] +=1;
        	                  	          		        	          	  }
        	          	  }
        	  break;
     c04:	00003f06 	br	d04 <main+0x7b0>
        	          		  pwmTon[numCanal] -=9;
        	          	  }else{
        	          		  pwmTon[numCanal] +=1;
        	          	  }
        	          	  }else{
        	          		if((pwmTon[numCanal]/1)%10 ==3){
     c08:	d0a72e03 	ldbu	r2,-25416(gp)
     c0c:	10c03fcc 	andi	r3,r2,255
     c10:	18c0201c 	xori	r3,r3,128
     c14:	18ffe004 	addi	r3,r3,-128
     c18:	00800074 	movhi	r2,1
     c1c:	10991604 	addi	r2,r2,25688
     c20:	18c7883a 	add	r3,r3,r3
     c24:	10c5883a 	add	r2,r2,r3
     c28:	1080000b 	ldhu	r2,0(r2)
     c2c:	10bfffcc 	andi	r2,r2,65535
     c30:	10a0001c 	xori	r2,r2,32768
     c34:	10a00004 	addi	r2,r2,-32768
     c38:	01400284 	movi	r5,10
     c3c:	1009883a 	mov	r4,r2
     c40:	00013500 	call	1350 <__modsi3>
     c44:	10bfffcc 	andi	r2,r2,65535
     c48:	10a0001c 	xori	r2,r2,32768
     c4c:	10a00004 	addi	r2,r2,-32768
     c50:	108000d8 	cmpnei	r2,r2,3
     c54:	1000151e 	bne	r2,zero,cac <main+0x758>
        	                  	          		        	          		  pwmTon[numCanal] -=3;
     c58:	d0a72e03 	ldbu	r2,-25416(gp)
     c5c:	10c03fcc 	andi	r3,r2,255
     c60:	18c0201c 	xori	r3,r3,128
     c64:	18ffe004 	addi	r3,r3,-128
     c68:	d0a72e03 	ldbu	r2,-25416(gp)
     c6c:	11003fcc 	andi	r4,r2,255
     c70:	2100201c 	xori	r4,r4,128
     c74:	213fe004 	addi	r4,r4,-128
     c78:	00800074 	movhi	r2,1
     c7c:	10991604 	addi	r2,r2,25688
     c80:	2109883a 	add	r4,r4,r4
     c84:	1105883a 	add	r2,r2,r4
     c88:	1080000b 	ldhu	r2,0(r2)
     c8c:	10bfff44 	addi	r2,r2,-3
     c90:	1009883a 	mov	r4,r2
     c94:	00800074 	movhi	r2,1
     c98:	10991604 	addi	r2,r2,25688
     c9c:	18c7883a 	add	r3,r3,r3
     ca0:	10c5883a 	add	r2,r2,r3
     ca4:	1100000d 	sth	r4,0(r2)
        	                  	          		        	          	  }else{
        	                  	          		        	          		  pwmTon[numCanal] +=1;
        	                  	          		        	          	  }
        	          	  }
        	  break;
     ca8:	00001606 	br	d04 <main+0x7b0>
        	          	  }
        	          	  }else{
        	          		if((pwmTon[numCanal]/1)%10 ==3){
        	                  	          		        	          		  pwmTon[numCanal] -=3;
        	                  	          		        	          	  }else{
        	                  	          		        	          		  pwmTon[numCanal] +=1;
     cac:	d0a72e03 	ldbu	r2,-25416(gp)
     cb0:	10c03fcc 	andi	r3,r2,255
     cb4:	18c0201c 	xori	r3,r3,128
     cb8:	18ffe004 	addi	r3,r3,-128
     cbc:	d0a72e03 	ldbu	r2,-25416(gp)
     cc0:	11003fcc 	andi	r4,r2,255
     cc4:	2100201c 	xori	r4,r4,128
     cc8:	213fe004 	addi	r4,r4,-128
     ccc:	00800074 	movhi	r2,1
     cd0:	10991604 	addi	r2,r2,25688
     cd4:	2109883a 	add	r4,r4,r4
     cd8:	1105883a 	add	r2,r2,r4
     cdc:	1080000b 	ldhu	r2,0(r2)
     ce0:	10800044 	addi	r2,r2,1
     ce4:	1009883a 	mov	r4,r2
     ce8:	00800074 	movhi	r2,1
     cec:	10991604 	addi	r2,r2,25688
     cf0:	18c7883a 	add	r3,r3,r3
     cf4:	10c5883a 	add	r2,r2,r3
     cf8:	1100000d 	sth	r4,0(r2)
        	                  	          		        	          	  }
        	          	  }
        	  break;
     cfc:	00000106 	br	d04 <main+0x7b0>
        		  pwmTon[numCanal] -=900;
        	  }else{
        		  pwmTon[numCanal] +=100;
        	  }
        	  }
        	  break;
     d00:	0001883a 	nop




          /** execute new ton**/
          updateValue(numCanal , pwmTon[numCanal]);
     d04:	d0a72e03 	ldbu	r2,-25416(gp)
     d08:	11003fcc 	andi	r4,r2,255
     d0c:	2100201c 	xori	r4,r4,128
     d10:	213fe004 	addi	r4,r4,-128
     d14:	d0a72e03 	ldbu	r2,-25416(gp)
     d18:	10c03fcc 	andi	r3,r2,255
     d1c:	18c0201c 	xori	r3,r3,128
     d20:	18ffe004 	addi	r3,r3,-128
     d24:	00800074 	movhi	r2,1
     d28:	10991604 	addi	r2,r2,25688
     d2c:	18c7883a 	add	r3,r3,r3
     d30:	10c5883a 	add	r2,r2,r3
     d34:	1080000b 	ldhu	r2,0(r2)
     d38:	10bfffcc 	andi	r2,r2,65535
     d3c:	10a0001c 	xori	r2,r2,32768
     d40:	10a00004 	addi	r2,r2,-32768
     d44:	100b883a 	mov	r5,r2
     d48:	00011100 	call	1110 <updateValue>

          /** print new Ton**/



          writeTon(pwmTon[numCanal]);
     d4c:	d0a72e03 	ldbu	r2,-25416(gp)
     d50:	10c03fcc 	andi	r3,r2,255
     d54:	18c0201c 	xori	r3,r3,128
     d58:	18ffe004 	addi	r3,r3,-128
     d5c:	00800074 	movhi	r2,1
     d60:	10991604 	addi	r2,r2,25688
     d64:	18c7883a 	add	r3,r3,r3
     d68:	10c5883a 	add	r2,r2,r3
     d6c:	1080000b 	ldhu	r2,0(r2)
     d70:	10bfffcc 	andi	r2,r2,65535
     d74:	10a0001c 	xori	r2,r2,32768
     d78:	10a00004 	addi	r2,r2,-32768
     d7c:	1009883a 	mov	r4,r2
     d80:	00004a00 	call	4a0 <writeTon>
          increment = 5;
     d84:	00800144 	movi	r2,5
     d88:	d0a0008d 	sth	r2,-32766(gp)
      }
      if(updateOnOff){
     d8c:	d0a72f83 	ldbu	r2,-25410(gp)
     d90:	10803fcc 	andi	r2,r2,255
     d94:	1080201c 	xori	r2,r2,128
     d98:	10bfe004 	addi	r2,r2,-128
     d9c:	103e0526 	beq	r2,zero,5b4 <__alt_data_end+0xf80005b4>
          updateOnOff = 0;
     da0:	d0272f85 	stb	zero,-25410(gp)
          setCanal(numCanal,1^isOn(numCanal));
     da4:	d0a72e03 	ldbu	r2,-25416(gp)
     da8:	14003fcc 	andi	r16,r2,255
     dac:	8400201c 	xori	r16,r16,128
     db0:	843fe004 	addi	r16,r16,-128
     db4:	d0a72e03 	ldbu	r2,-25416(gp)
     db8:	10803fcc 	andi	r2,r2,255
     dbc:	1080201c 	xori	r2,r2,128
     dc0:	10bfe004 	addi	r2,r2,-128
     dc4:	1009883a 	mov	r4,r2
     dc8:	00011b40 	call	11b4 <isOn>
     dcc:	1080005c 	xori	r2,r2,1
     dd0:	10803fcc 	andi	r2,r2,255
     dd4:	1080201c 	xori	r2,r2,128
     dd8:	10bfe004 	addi	r2,r2,-128
     ddc:	100b883a 	mov	r5,r2
     de0:	8009883a 	mov	r4,r16
     de4:	00010780 	call	1078 <setCanal>
          writeOnOff(isOn(numCanal));
     de8:	d0a72e03 	ldbu	r2,-25416(gp)
     dec:	10803fcc 	andi	r2,r2,255
     df0:	1080201c 	xori	r2,r2,128
     df4:	10bfe004 	addi	r2,r2,-128
     df8:	1009883a 	mov	r4,r2
     dfc:	00011b40 	call	11b4 <isOn>
     e00:	10803fcc 	andi	r2,r2,255
     e04:	1080201c 	xori	r2,r2,128
     e08:	10bfe004 	addi	r2,r2,-128
     e0c:	1009883a 	mov	r4,r2
     e10:	00003800 	call	380 <writeOnOff>
          printf("Hello from update!%d\n",isOn(numCanal));
     e14:	d0a72e03 	ldbu	r2,-25416(gp)
     e18:	10803fcc 	andi	r2,r2,255
     e1c:	1080201c 	xori	r2,r2,128
     e20:	10bfe004 	addi	r2,r2,-128
     e24:	1009883a 	mov	r4,r2
     e28:	00011b40 	call	11b4 <isOn>
     e2c:	10803fcc 	andi	r2,r2,255
     e30:	1080201c 	xori	r2,r2,128
     e34:	10bfe004 	addi	r2,r2,-128
     e38:	100b883a 	mov	r5,r2
     e3c:	01000074 	movhi	r4,1
     e40:	21178c04 	addi	r4,r4,24112
     e44:	00033580 	call	3358 <printf>
      }



  }
     e48:	003dda06 	br	5b4 <__alt_data_end+0xf80005b4>

00000e4c <boutonInterupt>:
  return 0;
}



void boutonInterupt(void * isr_context){
     e4c:	defffb04 	addi	sp,sp,-20
     e50:	dfc00415 	stw	ra,16(sp)
     e54:	df000315 	stw	fp,12(sp)
     e58:	df000304 	addi	fp,sp,12
     e5c:	e13fff15 	stw	r4,-4(fp)
     printf("Hello from bouton!%d\n",IORD_ALTERA_AVALON_PIO_DATA(BUTTON_BASE));
     e60:	00820034 	movhi	r2,2048
     e64:	10841c04 	addi	r2,r2,4208
     e68:	10800037 	ldwio	r2,0(r2)
     e6c:	100b883a 	mov	r5,r2
     e70:	01000074 	movhi	r4,1
     e74:	21179204 	addi	r4,r4,24136
     e78:	00033580 	call	3358 <printf>
     int test = IORD_ALTERA_AVALON_PIO_DATA(BUTTON_BASE);
     e7c:	00820034 	movhi	r2,2048
     e80:	10841c04 	addi	r2,r2,4208
     e84:	10800037 	ldwio	r2,0(r2)
     e88:	e0bffd15 	stw	r2,-12(fp)
     /* Cast context to edge_capture's type. It is important that this
     	be declared volatile to avoid unwanted compiler optimization. */
     	volatile int* edge_capture_ptr = (volatile int*) isr_context;
     e8c:	e0bfff17 	ldw	r2,-4(fp)
     e90:	e0bffe15 	stw	r2,-8(fp)
     	/*
     	* Read the edge capture register on the button PIO.
     	* Store value.
     	*/
     	*edge_capture_ptr =	IORD_ALTERA_AVALON_PIO_EDGE_CAP(BUTTON_BASE);
     e94:	00820034 	movhi	r2,2048
     e98:	10841f04 	addi	r2,r2,4220
     e9c:	10c00037 	ldwio	r3,0(r2)
     ea0:	e0bffe17 	ldw	r2,-8(fp)
     ea4:	10c00015 	stw	r3,0(r2)
        /* Write to the edge capture register to reset it. */
             	IOWR_ALTERA_AVALON_PIO_EDGE_CAP(BUTTON_BASE, 0);
     ea8:	0007883a 	mov	r3,zero
     eac:	00820034 	movhi	r2,2048
     eb0:	10841f04 	addi	r2,r2,4220
     eb4:	10c00035 	stwio	r3,0(r2)
             	/* Read the PIO to delay ISR exit. This is done to prevent a
             	spurious interrupt in systems with high processor -> pio
             	latency and fast interrupts. */
             	IORD_ALTERA_AVALON_PIO_EDGE_CAP(BUTTON_BASE);
     eb8:	00820034 	movhi	r2,2048
     ebc:	10841f04 	addi	r2,r2,4220
     ec0:	10800037 	ldwio	r2,0(r2)



     if(BOUTON_CANAL == test){
     ec4:	e0bffd17 	ldw	r2,-12(fp)
     ec8:	108000d8 	cmpnei	r2,r2,3
     ecc:	10000b1e 	bne	r2,zero,efc <boutonInterupt+0xb0>
         if(numCanal < 23){
     ed0:	d0a72e03 	ldbu	r2,-25416(gp)
     ed4:	10803fcc 	andi	r2,r2,255
     ed8:	1080201c 	xori	r2,r2,128
     edc:	10bfe004 	addi	r2,r2,-128
     ee0:	108005c8 	cmpgei	r2,r2,23
     ee4:	1000041e 	bne	r2,zero,ef8 <boutonInterupt+0xac>
             numCanal += 1;
     ee8:	d0a72e03 	ldbu	r2,-25416(gp)
     eec:	10800044 	addi	r2,r2,1
     ef0:	d0a72e05 	stb	r2,-25416(gp)
     ef4:	00000106 	br	efc <boutonInterupt+0xb0>
         }else{
             numCanal = 0;
     ef8:	d0272e05 	stb	zero,-25416(gp)
         }



     }
     if(BOUTON_REGLAGE == test){
     efc:	e0bffd17 	ldw	r2,-12(fp)
     f00:	10800158 	cmpnei	r2,r2,5
     f04:	1000201e 	bne	r2,zero,f88 <boutonInterupt+0x13c>
         if(SWMILLIER){
     f08:	00820034 	movhi	r2,2048
     f0c:	10842004 	addi	r2,r2,4224
     f10:	10800037 	ldwio	r2,0(r2)
     f14:	1080020c 	andi	r2,r2,8
     f18:	10000326 	beq	r2,zero,f28 <boutonInterupt+0xdc>
             increment = 3;
     f1c:	008000c4 	movi	r2,3
     f20:	d0a0008d 	sth	r2,-32766(gp)
     f24:	00001606 	br	f80 <boutonInterupt+0x134>
         }else if(SWCENTAINE){
     f28:	00820034 	movhi	r2,2048
     f2c:	10842004 	addi	r2,r2,4224
     f30:	10800037 	ldwio	r2,0(r2)
     f34:	1080010c 	andi	r2,r2,4
     f38:	10000326 	beq	r2,zero,f48 <boutonInterupt+0xfc>
             increment = 2;
     f3c:	00800084 	movi	r2,2
     f40:	d0a0008d 	sth	r2,-32766(gp)
     f44:	00000e06 	br	f80 <boutonInterupt+0x134>
         }else if(SWDIZAINE){
     f48:	00820034 	movhi	r2,2048
     f4c:	10842004 	addi	r2,r2,4224
     f50:	10800037 	ldwio	r2,0(r2)
     f54:	1080008c 	andi	r2,r2,2
     f58:	10000326 	beq	r2,zero,f68 <boutonInterupt+0x11c>
             increment = 1;
     f5c:	00800044 	movi	r2,1
     f60:	d0a0008d 	sth	r2,-32766(gp)
     f64:	00000606 	br	f80 <boutonInterupt+0x134>
         }else if(SWUNITER){
     f68:	00820034 	movhi	r2,2048
     f6c:	10842004 	addi	r2,r2,4224
     f70:	10800037 	ldwio	r2,0(r2)
     f74:	1080004c 	andi	r2,r2,1
     f78:	10000126 	beq	r2,zero,f80 <boutonInterupt+0x134>
             increment = 0;
     f7c:	d020008d 	sth	zero,-32766(gp)
         }
         newTon = 1;
     f80:	00800044 	movi	r2,1
     f84:	d0a72f0d 	sth	r2,-25412(gp)



     }
     if(BOUTON_ACTIVATION == test){
     f88:	e0bffd17 	ldw	r2,-12(fp)
     f8c:	10800198 	cmpnei	r2,r2,6
     f90:	1000021e 	bne	r2,zero,f9c <boutonInterupt+0x150>
         updateOnOff = 1;
     f94:	00800044 	movi	r2,1
     f98:	d0a72f85 	stb	r2,-25410(gp)
     }

}
     f9c:	0001883a 	nop
     fa0:	e037883a 	mov	sp,fp
     fa4:	dfc00117 	ldw	ra,4(sp)
     fa8:	df000017 	ldw	fp,0(sp)
     fac:	dec00204 	addi	sp,sp,8
     fb0:	f800283a 	ret

00000fb4 <initInterupt>:

void initInterupt(){
     fb4:	defffc04 	addi	sp,sp,-16
     fb8:	dfc00315 	stw	ra,12(sp)
     fbc:	df000215 	stw	fp,8(sp)
     fc0:	df000204 	addi	fp,sp,8
	void* edge_capture_ptr = (void*) &edge_capture; /* Enable all 3 button interrupts. */
     fc4:	d0a73004 	addi	r2,gp,-25408
     fc8:	e0bfff15 	stw	r2,-4(fp)
	IOWR_ALTERA_AVALON_PIO_IRQ_MASK(BUTTON_BASE, 0b111); /* Reset the edge capture register. */
     fcc:	00c001c4 	movi	r3,7
     fd0:	00820034 	movhi	r2,2048
     fd4:	10841e04 	addi	r2,r2,4216
     fd8:	10c00035 	stwio	r3,0(r2)
	IOWR_ALTERA_AVALON_PIO_EDGE_CAP(BUTTON_BASE, 0b000); /* Register the ISR. */
     fdc:	0007883a 	mov	r3,zero
     fe0:	00820034 	movhi	r2,2048
     fe4:	10841f04 	addi	r2,r2,4220
     fe8:	10c00035 	stwio	r3,0(r2)
	alt_ic_isr_register(BUTTON_IRQ_INTERRUPT_CONTROLLER_ID, BUTTON_IRQ, boutonInterupt, edge_capture_ptr, 0x0);
     fec:	d8000015 	stw	zero,0(sp)
     ff0:	e1ffff17 	ldw	r7,-4(fp)
     ff4:	01800034 	movhi	r6,0
     ff8:	31839304 	addi	r6,r6,3660
     ffc:	01400044 	movi	r5,1
    1000:	0009883a 	mov	r4,zero
    1004:	00127140 	call	12714 <alt_ic_isr_register>
}
    1008:	0001883a 	nop
    100c:	e037883a 	mov	sp,fp
    1010:	dfc00117 	ldw	ra,4(sp)
    1014:	df000017 	ldw	fp,0(sp)
    1018:	dec00204 	addi	sp,sp,8
    101c:	f800283a 	ret

00001020 <initPWM>:
#include "pwm.h"

void initPWM(){
    1020:	defffe04 	addi	sp,sp,-8
    1024:	dfc00115 	stw	ra,4(sp)
    1028:	df000015 	stw	fp,0(sp)
    102c:	d839883a 	mov	fp,sp
	setOnOff(0b111111111111111111111111);
    1030:	01004034 	movhi	r4,256
    1034:	213fffc4 	addi	r4,r4,-1
    1038:	00012700 	call	1270 <setOnOff>
	setlatch(0b111111111111111111111111);
    103c:	01004034 	movhi	r4,256
    1040:	213fffc4 	addi	r4,r4,-1
    1044:	00012040 	call	1204 <setlatch>
	setTon(512);
    1048:	01008004 	movi	r4,512
    104c:	00012380 	call	1238 <setTon>
	usleep(100);
    1050:	01001904 	movi	r4,100
    1054:	001325c0 	call	1325c <usleep>
	setlatch(0b000000000000000000000000);
    1058:	0009883a 	mov	r4,zero
    105c:	00012040 	call	1204 <setlatch>
}
    1060:	0001883a 	nop
    1064:	e037883a 	mov	sp,fp
    1068:	dfc00117 	ldw	ra,4(sp)
    106c:	df000017 	ldw	fp,0(sp)
    1070:	dec00204 	addi	sp,sp,8
    1074:	f800283a 	ret

00001078 <setCanal>:

void setCanal(char num , char state){
    1078:	defffb04 	addi	sp,sp,-20
    107c:	dfc00415 	stw	ra,16(sp)
    1080:	df000315 	stw	fp,12(sp)
    1084:	df000304 	addi	fp,sp,12
    1088:	2007883a 	mov	r3,r4
    108c:	2805883a 	mov	r2,r5
    1090:	e0fffe05 	stb	r3,-8(fp)
    1094:	e0bfff05 	stb	r2,-4(fp)
	int retour;
	retour = readOnOff();
    1098:	00012a40 	call	12a4 <readOnOff>
    109c:	e0bffd15 	stw	r2,-12(fp)
	printf("test num%d\n",retour);
    10a0:	e17ffd17 	ldw	r5,-12(fp)
    10a4:	01000074 	movhi	r4,1
    10a8:	21179804 	addi	r4,r4,24160
    10ac:	00033580 	call	3358 <printf>
	if(!state){
    10b0:	e0bfff07 	ldb	r2,-4(fp)
    10b4:	1000081e 	bne	r2,zero,10d8 <setCanal+0x60>
		setOnOff((1<<num)|retour);
    10b8:	e0bffe07 	ldb	r2,-8(fp)
    10bc:	00c00044 	movi	r3,1
    10c0:	1886983a 	sll	r3,r3,r2
    10c4:	e0bffd17 	ldw	r2,-12(fp)
    10c8:	1884b03a 	or	r2,r3,r2
    10cc:	1009883a 	mov	r4,r2
    10d0:	00012700 	call	1270 <setOnOff>

	}else{
		setOnOff(retour & ~(1<<num));

	}
}
    10d4:	00000806 	br	10f8 <setCanal+0x80>
	printf("test num%d\n",retour);
	if(!state){
		setOnOff((1<<num)|retour);

	}else{
		setOnOff(retour & ~(1<<num));
    10d8:	e0bffe07 	ldb	r2,-8(fp)
    10dc:	00c00044 	movi	r3,1
    10e0:	1884983a 	sll	r2,r3,r2
    10e4:	0086303a 	nor	r3,zero,r2
    10e8:	e0bffd17 	ldw	r2,-12(fp)
    10ec:	1884703a 	and	r2,r3,r2
    10f0:	1009883a 	mov	r4,r2
    10f4:	00012700 	call	1270 <setOnOff>

	}
}
    10f8:	0001883a 	nop
    10fc:	e037883a 	mov	sp,fp
    1100:	dfc00117 	ldw	ra,4(sp)
    1104:	df000017 	ldw	fp,0(sp)
    1108:	dec00204 	addi	sp,sp,8
    110c:	f800283a 	ret

00001110 <updateValue>:

void updateValue(char num,short ton){
    1110:	defffc04 	addi	sp,sp,-16
    1114:	dfc00315 	stw	ra,12(sp)
    1118:	df000215 	stw	fp,8(sp)
    111c:	df000204 	addi	fp,sp,8
    1120:	2007883a 	mov	r3,r4
    1124:	2805883a 	mov	r2,r5
    1128:	e0fffe05 	stb	r3,-8(fp)
    112c:	e0bfff0d 	sth	r2,-4(fp)
	setlatch((1<<num));
    1130:	e0bffe07 	ldb	r2,-8(fp)
    1134:	00c00044 	movi	r3,1
    1138:	1884983a 	sll	r2,r3,r2
    113c:	1009883a 	mov	r4,r2
    1140:	00012040 	call	1204 <setlatch>
	setTon(ton);
    1144:	e0bfff0f 	ldh	r2,-4(fp)
    1148:	1009883a 	mov	r4,r2
    114c:	00012380 	call	1238 <setTon>
	usleep(1000);
    1150:	0100fa04 	movi	r4,1000
    1154:	001325c0 	call	1325c <usleep>
	setlatch((0<<num));
    1158:	0009883a 	mov	r4,zero
    115c:	00012040 	call	1204 <setlatch>
}
    1160:	0001883a 	nop
    1164:	e037883a 	mov	sp,fp
    1168:	dfc00117 	ldw	ra,4(sp)
    116c:	df000017 	ldw	fp,0(sp)
    1170:	dec00204 	addi	sp,sp,8
    1174:	f800283a 	ret

00001178 <updateTon>:
void updateTon(short ton){
    1178:	defffd04 	addi	sp,sp,-12
    117c:	dfc00215 	stw	ra,8(sp)
    1180:	df000115 	stw	fp,4(sp)
    1184:	df000104 	addi	fp,sp,4
    1188:	2005883a 	mov	r2,r4
    118c:	e0bfff0d 	sth	r2,-4(fp)
	setTon(ton);
    1190:	e0bfff0f 	ldh	r2,-4(fp)
    1194:	1009883a 	mov	r4,r2
    1198:	00012380 	call	1238 <setTon>
}
    119c:	0001883a 	nop
    11a0:	e037883a 	mov	sp,fp
    11a4:	dfc00117 	ldw	ra,4(sp)
    11a8:	df000017 	ldw	fp,0(sp)
    11ac:	dec00204 	addi	sp,sp,8
    11b0:	f800283a 	ret

000011b4 <isOn>:

char isOn(char num){
    11b4:	defffd04 	addi	sp,sp,-12
    11b8:	dfc00215 	stw	ra,8(sp)
    11bc:	df000115 	stw	fp,4(sp)
    11c0:	df000104 	addi	fp,sp,4
    11c4:	2005883a 	mov	r2,r4
    11c8:	e0bfff05 	stb	r2,-4(fp)
    if(!(readOnOff()&(1<<num))){
    11cc:	00012a40 	call	12a4 <readOnOff>
    11d0:	1007883a 	mov	r3,r2
    11d4:	e0bfff07 	ldb	r2,-4(fp)
    11d8:	1885d83a 	sra	r2,r3,r2
    11dc:	1080004c 	andi	r2,r2,1
    11e0:	1000021e 	bne	r2,zero,11ec <isOn+0x38>
        return 1;
    11e4:	00800044 	movi	r2,1
    11e8:	00000106 	br	11f0 <isOn+0x3c>
    }else{
        return 0;
    11ec:	0005883a 	mov	r2,zero
    }
}
    11f0:	e037883a 	mov	sp,fp
    11f4:	dfc00117 	ldw	ra,4(sp)
    11f8:	df000017 	ldw	fp,0(sp)
    11fc:	dec00204 	addi	sp,sp,8
    1200:	f800283a 	ret

00001204 <setlatch>:
#include "pwmPioDriver.h"

void setlatch(int value){
    1204:	defffe04 	addi	sp,sp,-8
    1208:	df000115 	stw	fp,4(sp)
    120c:	df000104 	addi	fp,sp,4
    1210:	e13fff15 	stw	r4,-4(fp)
	IOWR_ALTERA_AVALON_PIO_DATA(PWM_LATCH_BASE,value);
    1214:	00820034 	movhi	r2,2048
    1218:	10841404 	addi	r2,r2,4176
    121c:	e0ffff17 	ldw	r3,-4(fp)
    1220:	10c00035 	stwio	r3,0(r2)
}
    1224:	0001883a 	nop
    1228:	e037883a 	mov	sp,fp
    122c:	df000017 	ldw	fp,0(sp)
    1230:	dec00104 	addi	sp,sp,4
    1234:	f800283a 	ret

00001238 <setTon>:

void setTon(short value){
    1238:	defffe04 	addi	sp,sp,-8
    123c:	df000115 	stw	fp,4(sp)
    1240:	df000104 	addi	fp,sp,4
    1244:	2005883a 	mov	r2,r4
    1248:	e0bfff0d 	sth	r2,-4(fp)
	IOWR_ALTERA_AVALON_PIO_DATA(PWM_TON_BASE,value);
    124c:	e0ffff0f 	ldh	r3,-4(fp)
    1250:	00820034 	movhi	r2,2048
    1254:	10841804 	addi	r2,r2,4192
    1258:	10c00035 	stwio	r3,0(r2)
}
    125c:	0001883a 	nop
    1260:	e037883a 	mov	sp,fp
    1264:	df000017 	ldw	fp,0(sp)
    1268:	dec00104 	addi	sp,sp,4
    126c:	f800283a 	ret

00001270 <setOnOff>:

void setOnOff(int value){
    1270:	defffe04 	addi	sp,sp,-8
    1274:	df000115 	stw	fp,4(sp)
    1278:	df000104 	addi	fp,sp,4
    127c:	e13fff15 	stw	r4,-4(fp)
	IOWR_ALTERA_AVALON_PIO_DATA(PWM_ONOFF_BASE,value);
    1280:	00820034 	movhi	r2,2048
    1284:	10841004 	addi	r2,r2,4160
    1288:	e0ffff17 	ldw	r3,-4(fp)
    128c:	10c00035 	stwio	r3,0(r2)
}
    1290:	0001883a 	nop
    1294:	e037883a 	mov	sp,fp
    1298:	df000017 	ldw	fp,0(sp)
    129c:	dec00104 	addi	sp,sp,4
    12a0:	f800283a 	ret

000012a4 <readOnOff>:

int readOnOff(){
    12a4:	deffff04 	addi	sp,sp,-4
    12a8:	df000015 	stw	fp,0(sp)
    12ac:	d839883a 	mov	fp,sp
	return IORD_ALTERA_AVALON_PIO_DATA(PWM_ONOFF_BASE);
    12b0:	00820034 	movhi	r2,2048
    12b4:	10841004 	addi	r2,r2,4160
    12b8:	10800037 	ldwio	r2,0(r2)
}
    12bc:	e037883a 	mov	sp,fp
    12c0:	df000017 	ldw	fp,0(sp)
    12c4:	dec00104 	addi	sp,sp,4
    12c8:	f800283a 	ret

000012cc <__divsi3>:
    12cc:	20001b16 	blt	r4,zero,133c <__divsi3+0x70>
    12d0:	000f883a 	mov	r7,zero
    12d4:	28001616 	blt	r5,zero,1330 <__divsi3+0x64>
    12d8:	200d883a 	mov	r6,r4
    12dc:	29001a2e 	bgeu	r5,r4,1348 <__divsi3+0x7c>
    12e0:	00800804 	movi	r2,32
    12e4:	00c00044 	movi	r3,1
    12e8:	00000106 	br	12f0 <__divsi3+0x24>
    12ec:	10000d26 	beq	r2,zero,1324 <__divsi3+0x58>
    12f0:	294b883a 	add	r5,r5,r5
    12f4:	10bfffc4 	addi	r2,r2,-1
    12f8:	18c7883a 	add	r3,r3,r3
    12fc:	293ffb36 	bltu	r5,r4,12ec <__alt_data_end+0xf80012ec>
    1300:	0005883a 	mov	r2,zero
    1304:	18000726 	beq	r3,zero,1324 <__divsi3+0x58>
    1308:	0005883a 	mov	r2,zero
    130c:	31400236 	bltu	r6,r5,1318 <__divsi3+0x4c>
    1310:	314dc83a 	sub	r6,r6,r5
    1314:	10c4b03a 	or	r2,r2,r3
    1318:	1806d07a 	srli	r3,r3,1
    131c:	280ad07a 	srli	r5,r5,1
    1320:	183ffa1e 	bne	r3,zero,130c <__alt_data_end+0xf800130c>
    1324:	38000126 	beq	r7,zero,132c <__divsi3+0x60>
    1328:	0085c83a 	sub	r2,zero,r2
    132c:	f800283a 	ret
    1330:	014bc83a 	sub	r5,zero,r5
    1334:	39c0005c 	xori	r7,r7,1
    1338:	003fe706 	br	12d8 <__alt_data_end+0xf80012d8>
    133c:	0109c83a 	sub	r4,zero,r4
    1340:	01c00044 	movi	r7,1
    1344:	003fe306 	br	12d4 <__alt_data_end+0xf80012d4>
    1348:	00c00044 	movi	r3,1
    134c:	003fee06 	br	1308 <__alt_data_end+0xf8001308>

00001350 <__modsi3>:
    1350:	20001716 	blt	r4,zero,13b0 <__modsi3+0x60>
    1354:	000f883a 	mov	r7,zero
    1358:	2005883a 	mov	r2,r4
    135c:	28001216 	blt	r5,zero,13a8 <__modsi3+0x58>
    1360:	2900162e 	bgeu	r5,r4,13bc <__modsi3+0x6c>
    1364:	01800804 	movi	r6,32
    1368:	00c00044 	movi	r3,1
    136c:	00000106 	br	1374 <__modsi3+0x24>
    1370:	30000a26 	beq	r6,zero,139c <__modsi3+0x4c>
    1374:	294b883a 	add	r5,r5,r5
    1378:	31bfffc4 	addi	r6,r6,-1
    137c:	18c7883a 	add	r3,r3,r3
    1380:	293ffb36 	bltu	r5,r4,1370 <__alt_data_end+0xf8001370>
    1384:	18000526 	beq	r3,zero,139c <__modsi3+0x4c>
    1388:	1806d07a 	srli	r3,r3,1
    138c:	11400136 	bltu	r2,r5,1394 <__modsi3+0x44>
    1390:	1145c83a 	sub	r2,r2,r5
    1394:	280ad07a 	srli	r5,r5,1
    1398:	183ffb1e 	bne	r3,zero,1388 <__alt_data_end+0xf8001388>
    139c:	38000126 	beq	r7,zero,13a4 <__modsi3+0x54>
    13a0:	0085c83a 	sub	r2,zero,r2
    13a4:	f800283a 	ret
    13a8:	014bc83a 	sub	r5,zero,r5
    13ac:	003fec06 	br	1360 <__alt_data_end+0xf8001360>
    13b0:	0109c83a 	sub	r4,zero,r4
    13b4:	01c00044 	movi	r7,1
    13b8:	003fe706 	br	1358 <__alt_data_end+0xf8001358>
    13bc:	00c00044 	movi	r3,1
    13c0:	003ff106 	br	1388 <__alt_data_end+0xf8001388>

000013c4 <__udivsi3>:
    13c4:	200d883a 	mov	r6,r4
    13c8:	2900152e 	bgeu	r5,r4,1420 <__udivsi3+0x5c>
    13cc:	28001416 	blt	r5,zero,1420 <__udivsi3+0x5c>
    13d0:	00800804 	movi	r2,32
    13d4:	00c00044 	movi	r3,1
    13d8:	00000206 	br	13e4 <__udivsi3+0x20>
    13dc:	10000e26 	beq	r2,zero,1418 <__udivsi3+0x54>
    13e0:	28000516 	blt	r5,zero,13f8 <__udivsi3+0x34>
    13e4:	294b883a 	add	r5,r5,r5
    13e8:	10bfffc4 	addi	r2,r2,-1
    13ec:	18c7883a 	add	r3,r3,r3
    13f0:	293ffa36 	bltu	r5,r4,13dc <__alt_data_end+0xf80013dc>
    13f4:	18000826 	beq	r3,zero,1418 <__udivsi3+0x54>
    13f8:	0005883a 	mov	r2,zero
    13fc:	31400236 	bltu	r6,r5,1408 <__udivsi3+0x44>
    1400:	314dc83a 	sub	r6,r6,r5
    1404:	10c4b03a 	or	r2,r2,r3
    1408:	1806d07a 	srli	r3,r3,1
    140c:	280ad07a 	srli	r5,r5,1
    1410:	183ffa1e 	bne	r3,zero,13fc <__alt_data_end+0xf80013fc>
    1414:	f800283a 	ret
    1418:	0005883a 	mov	r2,zero
    141c:	f800283a 	ret
    1420:	00c00044 	movi	r3,1
    1424:	003ff406 	br	13f8 <__alt_data_end+0xf80013f8>

00001428 <__umodsi3>:
    1428:	2005883a 	mov	r2,r4
    142c:	2900122e 	bgeu	r5,r4,1478 <__umodsi3+0x50>
    1430:	28001116 	blt	r5,zero,1478 <__umodsi3+0x50>
    1434:	01800804 	movi	r6,32
    1438:	00c00044 	movi	r3,1
    143c:	00000206 	br	1448 <__umodsi3+0x20>
    1440:	30000c26 	beq	r6,zero,1474 <__umodsi3+0x4c>
    1444:	28000516 	blt	r5,zero,145c <__umodsi3+0x34>
    1448:	294b883a 	add	r5,r5,r5
    144c:	31bfffc4 	addi	r6,r6,-1
    1450:	18c7883a 	add	r3,r3,r3
    1454:	293ffa36 	bltu	r5,r4,1440 <__alt_data_end+0xf8001440>
    1458:	18000626 	beq	r3,zero,1474 <__umodsi3+0x4c>
    145c:	1806d07a 	srli	r3,r3,1
    1460:	11400136 	bltu	r2,r5,1468 <__umodsi3+0x40>
    1464:	1145c83a 	sub	r2,r2,r5
    1468:	280ad07a 	srli	r5,r5,1
    146c:	183ffb1e 	bne	r3,zero,145c <__alt_data_end+0xf800145c>
    1470:	f800283a 	ret
    1474:	f800283a 	ret
    1478:	00c00044 	movi	r3,1
    147c:	003ff706 	br	145c <__alt_data_end+0xf800145c>

00001480 <__sflush_r>:
    1480:	2880030b 	ldhu	r2,12(r5)
    1484:	defffb04 	addi	sp,sp,-20
    1488:	dcc00315 	stw	r19,12(sp)
    148c:	dc400115 	stw	r17,4(sp)
    1490:	dfc00415 	stw	ra,16(sp)
    1494:	dc800215 	stw	r18,8(sp)
    1498:	dc000015 	stw	r16,0(sp)
    149c:	10c0020c 	andi	r3,r2,8
    14a0:	2823883a 	mov	r17,r5
    14a4:	2027883a 	mov	r19,r4
    14a8:	1800311e 	bne	r3,zero,1570 <__sflush_r+0xf0>
    14ac:	28c00117 	ldw	r3,4(r5)
    14b0:	10820014 	ori	r2,r2,2048
    14b4:	2880030d 	sth	r2,12(r5)
    14b8:	00c04b0e 	bge	zero,r3,15e8 <__sflush_r+0x168>
    14bc:	8a000a17 	ldw	r8,40(r17)
    14c0:	40002326 	beq	r8,zero,1550 <__sflush_r+0xd0>
    14c4:	9c000017 	ldw	r16,0(r19)
    14c8:	10c4000c 	andi	r3,r2,4096
    14cc:	98000015 	stw	zero,0(r19)
    14d0:	18004826 	beq	r3,zero,15f4 <__sflush_r+0x174>
    14d4:	89801417 	ldw	r6,80(r17)
    14d8:	10c0010c 	andi	r3,r2,4
    14dc:	18000626 	beq	r3,zero,14f8 <__sflush_r+0x78>
    14e0:	88c00117 	ldw	r3,4(r17)
    14e4:	88800c17 	ldw	r2,48(r17)
    14e8:	30cdc83a 	sub	r6,r6,r3
    14ec:	10000226 	beq	r2,zero,14f8 <__sflush_r+0x78>
    14f0:	88800f17 	ldw	r2,60(r17)
    14f4:	308dc83a 	sub	r6,r6,r2
    14f8:	89400717 	ldw	r5,28(r17)
    14fc:	000f883a 	mov	r7,zero
    1500:	9809883a 	mov	r4,r19
    1504:	403ee83a 	callr	r8
    1508:	00ffffc4 	movi	r3,-1
    150c:	10c04426 	beq	r2,r3,1620 <__sflush_r+0x1a0>
    1510:	88c0030b 	ldhu	r3,12(r17)
    1514:	89000417 	ldw	r4,16(r17)
    1518:	88000115 	stw	zero,4(r17)
    151c:	197dffcc 	andi	r5,r3,63487
    1520:	8940030d 	sth	r5,12(r17)
    1524:	89000015 	stw	r4,0(r17)
    1528:	18c4000c 	andi	r3,r3,4096
    152c:	18002c1e 	bne	r3,zero,15e0 <__sflush_r+0x160>
    1530:	89400c17 	ldw	r5,48(r17)
    1534:	9c000015 	stw	r16,0(r19)
    1538:	28000526 	beq	r5,zero,1550 <__sflush_r+0xd0>
    153c:	88801004 	addi	r2,r17,64
    1540:	28800226 	beq	r5,r2,154c <__sflush_r+0xcc>
    1544:	9809883a 	mov	r4,r19
    1548:	0001d540 	call	1d54 <_free_r>
    154c:	88000c15 	stw	zero,48(r17)
    1550:	0005883a 	mov	r2,zero
    1554:	dfc00417 	ldw	ra,16(sp)
    1558:	dcc00317 	ldw	r19,12(sp)
    155c:	dc800217 	ldw	r18,8(sp)
    1560:	dc400117 	ldw	r17,4(sp)
    1564:	dc000017 	ldw	r16,0(sp)
    1568:	dec00504 	addi	sp,sp,20
    156c:	f800283a 	ret
    1570:	2c800417 	ldw	r18,16(r5)
    1574:	903ff626 	beq	r18,zero,1550 <__alt_data_end+0xf8001550>
    1578:	2c000017 	ldw	r16,0(r5)
    157c:	108000cc 	andi	r2,r2,3
    1580:	2c800015 	stw	r18,0(r5)
    1584:	84a1c83a 	sub	r16,r16,r18
    1588:	1000131e 	bne	r2,zero,15d8 <__sflush_r+0x158>
    158c:	28800517 	ldw	r2,20(r5)
    1590:	88800215 	stw	r2,8(r17)
    1594:	04000316 	blt	zero,r16,15a4 <__sflush_r+0x124>
    1598:	003fed06 	br	1550 <__alt_data_end+0xf8001550>
    159c:	90a5883a 	add	r18,r18,r2
    15a0:	043feb0e 	bge	zero,r16,1550 <__alt_data_end+0xf8001550>
    15a4:	88800917 	ldw	r2,36(r17)
    15a8:	89400717 	ldw	r5,28(r17)
    15ac:	800f883a 	mov	r7,r16
    15b0:	900d883a 	mov	r6,r18
    15b4:	9809883a 	mov	r4,r19
    15b8:	103ee83a 	callr	r2
    15bc:	80a1c83a 	sub	r16,r16,r2
    15c0:	00bff616 	blt	zero,r2,159c <__alt_data_end+0xf800159c>
    15c4:	88c0030b 	ldhu	r3,12(r17)
    15c8:	00bfffc4 	movi	r2,-1
    15cc:	18c01014 	ori	r3,r3,64
    15d0:	88c0030d 	sth	r3,12(r17)
    15d4:	003fdf06 	br	1554 <__alt_data_end+0xf8001554>
    15d8:	0005883a 	mov	r2,zero
    15dc:	003fec06 	br	1590 <__alt_data_end+0xf8001590>
    15e0:	88801415 	stw	r2,80(r17)
    15e4:	003fd206 	br	1530 <__alt_data_end+0xf8001530>
    15e8:	28c00f17 	ldw	r3,60(r5)
    15ec:	00ffb316 	blt	zero,r3,14bc <__alt_data_end+0xf80014bc>
    15f0:	003fd706 	br	1550 <__alt_data_end+0xf8001550>
    15f4:	89400717 	ldw	r5,28(r17)
    15f8:	000d883a 	mov	r6,zero
    15fc:	01c00044 	movi	r7,1
    1600:	9809883a 	mov	r4,r19
    1604:	403ee83a 	callr	r8
    1608:	100d883a 	mov	r6,r2
    160c:	00bfffc4 	movi	r2,-1
    1610:	30801426 	beq	r6,r2,1664 <__sflush_r+0x1e4>
    1614:	8880030b 	ldhu	r2,12(r17)
    1618:	8a000a17 	ldw	r8,40(r17)
    161c:	003fae06 	br	14d8 <__alt_data_end+0xf80014d8>
    1620:	98c00017 	ldw	r3,0(r19)
    1624:	183fba26 	beq	r3,zero,1510 <__alt_data_end+0xf8001510>
    1628:	01000744 	movi	r4,29
    162c:	19000626 	beq	r3,r4,1648 <__sflush_r+0x1c8>
    1630:	01000584 	movi	r4,22
    1634:	19000426 	beq	r3,r4,1648 <__sflush_r+0x1c8>
    1638:	88c0030b 	ldhu	r3,12(r17)
    163c:	18c01014 	ori	r3,r3,64
    1640:	88c0030d 	sth	r3,12(r17)
    1644:	003fc306 	br	1554 <__alt_data_end+0xf8001554>
    1648:	8880030b 	ldhu	r2,12(r17)
    164c:	88c00417 	ldw	r3,16(r17)
    1650:	88000115 	stw	zero,4(r17)
    1654:	10bdffcc 	andi	r2,r2,63487
    1658:	8880030d 	sth	r2,12(r17)
    165c:	88c00015 	stw	r3,0(r17)
    1660:	003fb306 	br	1530 <__alt_data_end+0xf8001530>
    1664:	98800017 	ldw	r2,0(r19)
    1668:	103fea26 	beq	r2,zero,1614 <__alt_data_end+0xf8001614>
    166c:	00c00744 	movi	r3,29
    1670:	10c00226 	beq	r2,r3,167c <__sflush_r+0x1fc>
    1674:	00c00584 	movi	r3,22
    1678:	10c0031e 	bne	r2,r3,1688 <__sflush_r+0x208>
    167c:	9c000015 	stw	r16,0(r19)
    1680:	0005883a 	mov	r2,zero
    1684:	003fb306 	br	1554 <__alt_data_end+0xf8001554>
    1688:	88c0030b 	ldhu	r3,12(r17)
    168c:	3005883a 	mov	r2,r6
    1690:	18c01014 	ori	r3,r3,64
    1694:	88c0030d 	sth	r3,12(r17)
    1698:	003fae06 	br	1554 <__alt_data_end+0xf8001554>

0000169c <_fflush_r>:
    169c:	defffd04 	addi	sp,sp,-12
    16a0:	dc000115 	stw	r16,4(sp)
    16a4:	dfc00215 	stw	ra,8(sp)
    16a8:	2021883a 	mov	r16,r4
    16ac:	20000226 	beq	r4,zero,16b8 <_fflush_r+0x1c>
    16b0:	20800e17 	ldw	r2,56(r4)
    16b4:	10000c26 	beq	r2,zero,16e8 <_fflush_r+0x4c>
    16b8:	2880030f 	ldh	r2,12(r5)
    16bc:	1000051e 	bne	r2,zero,16d4 <_fflush_r+0x38>
    16c0:	0005883a 	mov	r2,zero
    16c4:	dfc00217 	ldw	ra,8(sp)
    16c8:	dc000117 	ldw	r16,4(sp)
    16cc:	dec00304 	addi	sp,sp,12
    16d0:	f800283a 	ret
    16d4:	8009883a 	mov	r4,r16
    16d8:	dfc00217 	ldw	ra,8(sp)
    16dc:	dc000117 	ldw	r16,4(sp)
    16e0:	dec00304 	addi	sp,sp,12
    16e4:	00014801 	jmpi	1480 <__sflush_r>
    16e8:	d9400015 	stw	r5,0(sp)
    16ec:	0001a880 	call	1a88 <__sinit>
    16f0:	d9400017 	ldw	r5,0(sp)
    16f4:	003ff006 	br	16b8 <__alt_data_end+0xf80016b8>

000016f8 <fflush>:
    16f8:	20000526 	beq	r4,zero,1710 <fflush+0x18>
    16fc:	008000b4 	movhi	r2,2
    1700:	10a01704 	addi	r2,r2,-32676
    1704:	200b883a 	mov	r5,r4
    1708:	11000017 	ldw	r4,0(r2)
    170c:	000169c1 	jmpi	169c <_fflush_r>
    1710:	008000b4 	movhi	r2,2
    1714:	10a01604 	addi	r2,r2,-32680
    1718:	11000017 	ldw	r4,0(r2)
    171c:	01400034 	movhi	r5,0
    1720:	2945a704 	addi	r5,r5,5788
    1724:	00026041 	jmpi	2604 <_fwalk_reent>

00001728 <__fp_unlock>:
    1728:	0005883a 	mov	r2,zero
    172c:	f800283a 	ret

00001730 <_cleanup_r>:
    1730:	01400074 	movhi	r5,1
    1734:	29669b04 	addi	r5,r5,-26004
    1738:	00026041 	jmpi	2604 <_fwalk_reent>

0000173c <__sinit.part.1>:
    173c:	defff704 	addi	sp,sp,-36
    1740:	00c00034 	movhi	r3,0
    1744:	dfc00815 	stw	ra,32(sp)
    1748:	ddc00715 	stw	r23,28(sp)
    174c:	dd800615 	stw	r22,24(sp)
    1750:	dd400515 	stw	r21,20(sp)
    1754:	dd000415 	stw	r20,16(sp)
    1758:	dcc00315 	stw	r19,12(sp)
    175c:	dc800215 	stw	r18,8(sp)
    1760:	dc400115 	stw	r17,4(sp)
    1764:	dc000015 	stw	r16,0(sp)
    1768:	18c5cc04 	addi	r3,r3,5936
    176c:	24000117 	ldw	r16,4(r4)
    1770:	20c00f15 	stw	r3,60(r4)
    1774:	2080bb04 	addi	r2,r4,748
    1778:	00c000c4 	movi	r3,3
    177c:	20c0b915 	stw	r3,740(r4)
    1780:	2080ba15 	stw	r2,744(r4)
    1784:	2000b815 	stw	zero,736(r4)
    1788:	05c00204 	movi	r23,8
    178c:	00800104 	movi	r2,4
    1790:	2025883a 	mov	r18,r4
    1794:	b80d883a 	mov	r6,r23
    1798:	81001704 	addi	r4,r16,92
    179c:	000b883a 	mov	r5,zero
    17a0:	80000015 	stw	zero,0(r16)
    17a4:	80000115 	stw	zero,4(r16)
    17a8:	80000215 	stw	zero,8(r16)
    17ac:	8080030d 	sth	r2,12(r16)
    17b0:	80001915 	stw	zero,100(r16)
    17b4:	8000038d 	sth	zero,14(r16)
    17b8:	80000415 	stw	zero,16(r16)
    17bc:	80000515 	stw	zero,20(r16)
    17c0:	80000615 	stw	zero,24(r16)
    17c4:	00031a00 	call	31a0 <memset>
    17c8:	05800034 	movhi	r22,0
    17cc:	94400217 	ldw	r17,8(r18)
    17d0:	05400034 	movhi	r21,0
    17d4:	05000034 	movhi	r20,0
    17d8:	04c00034 	movhi	r19,0
    17dc:	b58ddc04 	addi	r22,r22,14192
    17e0:	ad4df304 	addi	r21,r21,14284
    17e4:	a50e1204 	addi	r20,r20,14408
    17e8:	9cce2904 	addi	r19,r19,14500
    17ec:	85800815 	stw	r22,32(r16)
    17f0:	85400915 	stw	r21,36(r16)
    17f4:	85000a15 	stw	r20,40(r16)
    17f8:	84c00b15 	stw	r19,44(r16)
    17fc:	84000715 	stw	r16,28(r16)
    1800:	00800284 	movi	r2,10
    1804:	8880030d 	sth	r2,12(r17)
    1808:	00800044 	movi	r2,1
    180c:	b80d883a 	mov	r6,r23
    1810:	89001704 	addi	r4,r17,92
    1814:	000b883a 	mov	r5,zero
    1818:	88000015 	stw	zero,0(r17)
    181c:	88000115 	stw	zero,4(r17)
    1820:	88000215 	stw	zero,8(r17)
    1824:	88001915 	stw	zero,100(r17)
    1828:	8880038d 	sth	r2,14(r17)
    182c:	88000415 	stw	zero,16(r17)
    1830:	88000515 	stw	zero,20(r17)
    1834:	88000615 	stw	zero,24(r17)
    1838:	00031a00 	call	31a0 <memset>
    183c:	94000317 	ldw	r16,12(r18)
    1840:	00800484 	movi	r2,18
    1844:	8c400715 	stw	r17,28(r17)
    1848:	8d800815 	stw	r22,32(r17)
    184c:	8d400915 	stw	r21,36(r17)
    1850:	8d000a15 	stw	r20,40(r17)
    1854:	8cc00b15 	stw	r19,44(r17)
    1858:	8080030d 	sth	r2,12(r16)
    185c:	00800084 	movi	r2,2
    1860:	80000015 	stw	zero,0(r16)
    1864:	80000115 	stw	zero,4(r16)
    1868:	80000215 	stw	zero,8(r16)
    186c:	80001915 	stw	zero,100(r16)
    1870:	8080038d 	sth	r2,14(r16)
    1874:	80000415 	stw	zero,16(r16)
    1878:	80000515 	stw	zero,20(r16)
    187c:	80000615 	stw	zero,24(r16)
    1880:	b80d883a 	mov	r6,r23
    1884:	000b883a 	mov	r5,zero
    1888:	81001704 	addi	r4,r16,92
    188c:	00031a00 	call	31a0 <memset>
    1890:	00800044 	movi	r2,1
    1894:	84000715 	stw	r16,28(r16)
    1898:	85800815 	stw	r22,32(r16)
    189c:	85400915 	stw	r21,36(r16)
    18a0:	85000a15 	stw	r20,40(r16)
    18a4:	84c00b15 	stw	r19,44(r16)
    18a8:	90800e15 	stw	r2,56(r18)
    18ac:	dfc00817 	ldw	ra,32(sp)
    18b0:	ddc00717 	ldw	r23,28(sp)
    18b4:	dd800617 	ldw	r22,24(sp)
    18b8:	dd400517 	ldw	r21,20(sp)
    18bc:	dd000417 	ldw	r20,16(sp)
    18c0:	dcc00317 	ldw	r19,12(sp)
    18c4:	dc800217 	ldw	r18,8(sp)
    18c8:	dc400117 	ldw	r17,4(sp)
    18cc:	dc000017 	ldw	r16,0(sp)
    18d0:	dec00904 	addi	sp,sp,36
    18d4:	f800283a 	ret

000018d8 <__fp_lock>:
    18d8:	0005883a 	mov	r2,zero
    18dc:	f800283a 	ret

000018e0 <__sfmoreglue>:
    18e0:	defffc04 	addi	sp,sp,-16
    18e4:	dc800215 	stw	r18,8(sp)
    18e8:	2825883a 	mov	r18,r5
    18ec:	dc000015 	stw	r16,0(sp)
    18f0:	01401a04 	movi	r5,104
    18f4:	2021883a 	mov	r16,r4
    18f8:	913fffc4 	addi	r4,r18,-1
    18fc:	dfc00315 	stw	ra,12(sp)
    1900:	dc400115 	stw	r17,4(sp)
    1904:	000fc140 	call	fc14 <__mulsi3>
    1908:	8009883a 	mov	r4,r16
    190c:	11401d04 	addi	r5,r2,116
    1910:	1023883a 	mov	r17,r2
    1914:	00029940 	call	2994 <_malloc_r>
    1918:	1021883a 	mov	r16,r2
    191c:	10000726 	beq	r2,zero,193c <__sfmoreglue+0x5c>
    1920:	11000304 	addi	r4,r2,12
    1924:	10000015 	stw	zero,0(r2)
    1928:	14800115 	stw	r18,4(r2)
    192c:	11000215 	stw	r4,8(r2)
    1930:	89801a04 	addi	r6,r17,104
    1934:	000b883a 	mov	r5,zero
    1938:	00031a00 	call	31a0 <memset>
    193c:	8005883a 	mov	r2,r16
    1940:	dfc00317 	ldw	ra,12(sp)
    1944:	dc800217 	ldw	r18,8(sp)
    1948:	dc400117 	ldw	r17,4(sp)
    194c:	dc000017 	ldw	r16,0(sp)
    1950:	dec00404 	addi	sp,sp,16
    1954:	f800283a 	ret

00001958 <__sfp>:
    1958:	defffb04 	addi	sp,sp,-20
    195c:	dc000015 	stw	r16,0(sp)
    1960:	040000b4 	movhi	r16,2
    1964:	84201604 	addi	r16,r16,-32680
    1968:	dcc00315 	stw	r19,12(sp)
    196c:	2027883a 	mov	r19,r4
    1970:	81000017 	ldw	r4,0(r16)
    1974:	dfc00415 	stw	ra,16(sp)
    1978:	dc800215 	stw	r18,8(sp)
    197c:	20800e17 	ldw	r2,56(r4)
    1980:	dc400115 	stw	r17,4(sp)
    1984:	1000021e 	bne	r2,zero,1990 <__sfp+0x38>
    1988:	000173c0 	call	173c <__sinit.part.1>
    198c:	81000017 	ldw	r4,0(r16)
    1990:	2480b804 	addi	r18,r4,736
    1994:	047fffc4 	movi	r17,-1
    1998:	91000117 	ldw	r4,4(r18)
    199c:	94000217 	ldw	r16,8(r18)
    19a0:	213fffc4 	addi	r4,r4,-1
    19a4:	20000a16 	blt	r4,zero,19d0 <__sfp+0x78>
    19a8:	8080030f 	ldh	r2,12(r16)
    19ac:	10000c26 	beq	r2,zero,19e0 <__sfp+0x88>
    19b0:	80c01d04 	addi	r3,r16,116
    19b4:	00000206 	br	19c0 <__sfp+0x68>
    19b8:	18bfe60f 	ldh	r2,-104(r3)
    19bc:	10000826 	beq	r2,zero,19e0 <__sfp+0x88>
    19c0:	213fffc4 	addi	r4,r4,-1
    19c4:	1c3ffd04 	addi	r16,r3,-12
    19c8:	18c01a04 	addi	r3,r3,104
    19cc:	247ffa1e 	bne	r4,r17,19b8 <__alt_data_end+0xf80019b8>
    19d0:	90800017 	ldw	r2,0(r18)
    19d4:	10001d26 	beq	r2,zero,1a4c <__sfp+0xf4>
    19d8:	1025883a 	mov	r18,r2
    19dc:	003fee06 	br	1998 <__alt_data_end+0xf8001998>
    19e0:	00bfffc4 	movi	r2,-1
    19e4:	8080038d 	sth	r2,14(r16)
    19e8:	00800044 	movi	r2,1
    19ec:	8080030d 	sth	r2,12(r16)
    19f0:	80001915 	stw	zero,100(r16)
    19f4:	80000015 	stw	zero,0(r16)
    19f8:	80000215 	stw	zero,8(r16)
    19fc:	80000115 	stw	zero,4(r16)
    1a00:	80000415 	stw	zero,16(r16)
    1a04:	80000515 	stw	zero,20(r16)
    1a08:	80000615 	stw	zero,24(r16)
    1a0c:	01800204 	movi	r6,8
    1a10:	000b883a 	mov	r5,zero
    1a14:	81001704 	addi	r4,r16,92
    1a18:	00031a00 	call	31a0 <memset>
    1a1c:	8005883a 	mov	r2,r16
    1a20:	80000c15 	stw	zero,48(r16)
    1a24:	80000d15 	stw	zero,52(r16)
    1a28:	80001115 	stw	zero,68(r16)
    1a2c:	80001215 	stw	zero,72(r16)
    1a30:	dfc00417 	ldw	ra,16(sp)
    1a34:	dcc00317 	ldw	r19,12(sp)
    1a38:	dc800217 	ldw	r18,8(sp)
    1a3c:	dc400117 	ldw	r17,4(sp)
    1a40:	dc000017 	ldw	r16,0(sp)
    1a44:	dec00504 	addi	sp,sp,20
    1a48:	f800283a 	ret
    1a4c:	01400104 	movi	r5,4
    1a50:	9809883a 	mov	r4,r19
    1a54:	00018e00 	call	18e0 <__sfmoreglue>
    1a58:	90800015 	stw	r2,0(r18)
    1a5c:	103fde1e 	bne	r2,zero,19d8 <__alt_data_end+0xf80019d8>
    1a60:	00800304 	movi	r2,12
    1a64:	98800015 	stw	r2,0(r19)
    1a68:	0005883a 	mov	r2,zero
    1a6c:	003ff006 	br	1a30 <__alt_data_end+0xf8001a30>

00001a70 <_cleanup>:
    1a70:	008000b4 	movhi	r2,2
    1a74:	10a01604 	addi	r2,r2,-32680
    1a78:	11000017 	ldw	r4,0(r2)
    1a7c:	01400074 	movhi	r5,1
    1a80:	29669b04 	addi	r5,r5,-26004
    1a84:	00026041 	jmpi	2604 <_fwalk_reent>

00001a88 <__sinit>:
    1a88:	20800e17 	ldw	r2,56(r4)
    1a8c:	10000126 	beq	r2,zero,1a94 <__sinit+0xc>
    1a90:	f800283a 	ret
    1a94:	000173c1 	jmpi	173c <__sinit.part.1>

00001a98 <__sfp_lock_acquire>:
    1a98:	f800283a 	ret

00001a9c <__sfp_lock_release>:
    1a9c:	f800283a 	ret

00001aa0 <__sinit_lock_acquire>:
    1aa0:	f800283a 	ret

00001aa4 <__sinit_lock_release>:
    1aa4:	f800283a 	ret

00001aa8 <__fp_lock_all>:
    1aa8:	008000b4 	movhi	r2,2
    1aac:	10a01704 	addi	r2,r2,-32676
    1ab0:	11000017 	ldw	r4,0(r2)
    1ab4:	01400034 	movhi	r5,0
    1ab8:	29463604 	addi	r5,r5,6360
    1abc:	00025401 	jmpi	2540 <_fwalk>

00001ac0 <__fp_unlock_all>:
    1ac0:	008000b4 	movhi	r2,2
    1ac4:	10a01704 	addi	r2,r2,-32676
    1ac8:	11000017 	ldw	r4,0(r2)
    1acc:	01400034 	movhi	r5,0
    1ad0:	2945ca04 	addi	r5,r5,5928
    1ad4:	00025401 	jmpi	2540 <_fwalk>

00001ad8 <_fopen_r>:
    1ad8:	defffa04 	addi	sp,sp,-24
    1adc:	3005883a 	mov	r2,r6
    1ae0:	dcc00415 	stw	r19,16(sp)
    1ae4:	d80d883a 	mov	r6,sp
    1ae8:	2827883a 	mov	r19,r5
    1aec:	100b883a 	mov	r5,r2
    1af0:	dc800315 	stw	r18,12(sp)
    1af4:	dfc00515 	stw	ra,20(sp)
    1af8:	dc400215 	stw	r17,8(sp)
    1afc:	dc000115 	stw	r16,4(sp)
    1b00:	2025883a 	mov	r18,r4
    1b04:	0009b700 	call	9b70 <__sflags>
    1b08:	10002726 	beq	r2,zero,1ba8 <_fopen_r+0xd0>
    1b0c:	9009883a 	mov	r4,r18
    1b10:	1023883a 	mov	r17,r2
    1b14:	00019580 	call	1958 <__sfp>
    1b18:	1021883a 	mov	r16,r2
    1b1c:	10002226 	beq	r2,zero,1ba8 <_fopen_r+0xd0>
    1b20:	d9800017 	ldw	r6,0(sp)
    1b24:	01c06d84 	movi	r7,438
    1b28:	980b883a 	mov	r5,r19
    1b2c:	9009883a 	mov	r4,r18
    1b30:	00032c80 	call	32c8 <_open_r>
    1b34:	10001916 	blt	r2,zero,1b9c <_fopen_r+0xc4>
    1b38:	8080038d 	sth	r2,14(r16)
    1b3c:	00800034 	movhi	r2,0
    1b40:	108ddc04 	addi	r2,r2,14192
    1b44:	80800815 	stw	r2,32(r16)
    1b48:	00800034 	movhi	r2,0
    1b4c:	108df304 	addi	r2,r2,14284
    1b50:	80800915 	stw	r2,36(r16)
    1b54:	00800034 	movhi	r2,0
    1b58:	108e1204 	addi	r2,r2,14408
    1b5c:	80800a15 	stw	r2,40(r16)
    1b60:	00800034 	movhi	r2,0
    1b64:	108e2904 	addi	r2,r2,14500
    1b68:	8440030d 	sth	r17,12(r16)
    1b6c:	84000715 	stw	r16,28(r16)
    1b70:	80800b15 	stw	r2,44(r16)
    1b74:	8c40400c 	andi	r17,r17,256
    1b78:	88000d1e 	bne	r17,zero,1bb0 <_fopen_r+0xd8>
    1b7c:	8005883a 	mov	r2,r16
    1b80:	dfc00517 	ldw	ra,20(sp)
    1b84:	dcc00417 	ldw	r19,16(sp)
    1b88:	dc800317 	ldw	r18,12(sp)
    1b8c:	dc400217 	ldw	r17,8(sp)
    1b90:	dc000117 	ldw	r16,4(sp)
    1b94:	dec00604 	addi	sp,sp,24
    1b98:	f800283a 	ret
    1b9c:	0001a980 	call	1a98 <__sfp_lock_acquire>
    1ba0:	8000030d 	sth	zero,12(r16)
    1ba4:	0001a9c0 	call	1a9c <__sfp_lock_release>
    1ba8:	0005883a 	mov	r2,zero
    1bac:	003ff406 	br	1b80 <__alt_data_end+0xf8001b80>
    1bb0:	01c00084 	movi	r7,2
    1bb4:	000d883a 	mov	r6,zero
    1bb8:	800b883a 	mov	r5,r16
    1bbc:	9009883a 	mov	r4,r18
    1bc0:	00020640 	call	2064 <_fseek_r>
    1bc4:	8005883a 	mov	r2,r16
    1bc8:	003fed06 	br	1b80 <__alt_data_end+0xf8001b80>

00001bcc <fopen>:
    1bcc:	008000b4 	movhi	r2,2
    1bd0:	10a01704 	addi	r2,r2,-32676
    1bd4:	280d883a 	mov	r6,r5
    1bd8:	200b883a 	mov	r5,r4
    1bdc:	11000017 	ldw	r4,0(r2)
    1be0:	0001ad81 	jmpi	1ad8 <_fopen_r>

00001be4 <_fprintf_r>:
    1be4:	defffe04 	addi	sp,sp,-8
    1be8:	2809883a 	mov	r4,r5
    1bec:	300b883a 	mov	r5,r6
    1bf0:	dfc00015 	stw	ra,0(sp)
    1bf4:	d9c00115 	stw	r7,4(sp)
    1bf8:	d9800104 	addi	r6,sp,4
    1bfc:	0007edc0 	call	7edc <__vfprintf_internal>
    1c00:	dfc00017 	ldw	ra,0(sp)
    1c04:	dec00204 	addi	sp,sp,8
    1c08:	f800283a 	ret

00001c0c <fprintf>:
    1c0c:	defffd04 	addi	sp,sp,-12
    1c10:	dfc00015 	stw	ra,0(sp)
    1c14:	d9800115 	stw	r6,4(sp)
    1c18:	d9c00215 	stw	r7,8(sp)
    1c1c:	d9800104 	addi	r6,sp,4
    1c20:	0007edc0 	call	7edc <__vfprintf_internal>
    1c24:	dfc00017 	ldw	ra,0(sp)
    1c28:	dec00304 	addi	sp,sp,12
    1c2c:	f800283a 	ret

00001c30 <_malloc_trim_r>:
    1c30:	defffb04 	addi	sp,sp,-20
    1c34:	dcc00315 	stw	r19,12(sp)
    1c38:	04c00074 	movhi	r19,1
    1c3c:	dc800215 	stw	r18,8(sp)
    1c40:	dc400115 	stw	r17,4(sp)
    1c44:	dc000015 	stw	r16,0(sp)
    1c48:	dfc00415 	stw	ra,16(sp)
    1c4c:	2821883a 	mov	r16,r5
    1c50:	9cda2b04 	addi	r19,r19,26796
    1c54:	2025883a 	mov	r18,r4
    1c58:	0012d1c0 	call	12d1c <__malloc_lock>
    1c5c:	98800217 	ldw	r2,8(r19)
    1c60:	14400117 	ldw	r17,4(r2)
    1c64:	00bfff04 	movi	r2,-4
    1c68:	88a2703a 	and	r17,r17,r2
    1c6c:	8c21c83a 	sub	r16,r17,r16
    1c70:	8403fbc4 	addi	r16,r16,4079
    1c74:	8020d33a 	srli	r16,r16,12
    1c78:	0083ffc4 	movi	r2,4095
    1c7c:	843fffc4 	addi	r16,r16,-1
    1c80:	8020933a 	slli	r16,r16,12
    1c84:	1400060e 	bge	r2,r16,1ca0 <_malloc_trim_r+0x70>
    1c88:	000b883a 	mov	r5,zero
    1c8c:	9009883a 	mov	r4,r18
    1c90:	00036580 	call	3658 <_sbrk_r>
    1c94:	98c00217 	ldw	r3,8(r19)
    1c98:	1c47883a 	add	r3,r3,r17
    1c9c:	10c00a26 	beq	r2,r3,1cc8 <_malloc_trim_r+0x98>
    1ca0:	9009883a 	mov	r4,r18
    1ca4:	0012d400 	call	12d40 <__malloc_unlock>
    1ca8:	0005883a 	mov	r2,zero
    1cac:	dfc00417 	ldw	ra,16(sp)
    1cb0:	dcc00317 	ldw	r19,12(sp)
    1cb4:	dc800217 	ldw	r18,8(sp)
    1cb8:	dc400117 	ldw	r17,4(sp)
    1cbc:	dc000017 	ldw	r16,0(sp)
    1cc0:	dec00504 	addi	sp,sp,20
    1cc4:	f800283a 	ret
    1cc8:	040bc83a 	sub	r5,zero,r16
    1ccc:	9009883a 	mov	r4,r18
    1cd0:	00036580 	call	3658 <_sbrk_r>
    1cd4:	00ffffc4 	movi	r3,-1
    1cd8:	10c00d26 	beq	r2,r3,1d10 <_malloc_trim_r+0xe0>
    1cdc:	00c000b4 	movhi	r3,2
    1ce0:	18e75604 	addi	r3,r3,-25256
    1ce4:	18800017 	ldw	r2,0(r3)
    1ce8:	99000217 	ldw	r4,8(r19)
    1cec:	8c23c83a 	sub	r17,r17,r16
    1cf0:	8c400054 	ori	r17,r17,1
    1cf4:	1421c83a 	sub	r16,r2,r16
    1cf8:	24400115 	stw	r17,4(r4)
    1cfc:	9009883a 	mov	r4,r18
    1d00:	1c000015 	stw	r16,0(r3)
    1d04:	0012d400 	call	12d40 <__malloc_unlock>
    1d08:	00800044 	movi	r2,1
    1d0c:	003fe706 	br	1cac <__alt_data_end+0xf8001cac>
    1d10:	000b883a 	mov	r5,zero
    1d14:	9009883a 	mov	r4,r18
    1d18:	00036580 	call	3658 <_sbrk_r>
    1d1c:	99000217 	ldw	r4,8(r19)
    1d20:	014003c4 	movi	r5,15
    1d24:	1107c83a 	sub	r3,r2,r4
    1d28:	28ffdd0e 	bge	r5,r3,1ca0 <__alt_data_end+0xf8001ca0>
    1d2c:	014000b4 	movhi	r5,2
    1d30:	29601804 	addi	r5,r5,-32672
    1d34:	29400017 	ldw	r5,0(r5)
    1d38:	18c00054 	ori	r3,r3,1
    1d3c:	20c00115 	stw	r3,4(r4)
    1d40:	00c000b4 	movhi	r3,2
    1d44:	1145c83a 	sub	r2,r2,r5
    1d48:	18e75604 	addi	r3,r3,-25256
    1d4c:	18800015 	stw	r2,0(r3)
    1d50:	003fd306 	br	1ca0 <__alt_data_end+0xf8001ca0>

00001d54 <_free_r>:
    1d54:	28004126 	beq	r5,zero,1e5c <_free_r+0x108>
    1d58:	defffd04 	addi	sp,sp,-12
    1d5c:	dc400115 	stw	r17,4(sp)
    1d60:	dc000015 	stw	r16,0(sp)
    1d64:	2023883a 	mov	r17,r4
    1d68:	2821883a 	mov	r16,r5
    1d6c:	dfc00215 	stw	ra,8(sp)
    1d70:	0012d1c0 	call	12d1c <__malloc_lock>
    1d74:	81ffff17 	ldw	r7,-4(r16)
    1d78:	00bfff84 	movi	r2,-2
    1d7c:	01000074 	movhi	r4,1
    1d80:	81bffe04 	addi	r6,r16,-8
    1d84:	3884703a 	and	r2,r7,r2
    1d88:	211a2b04 	addi	r4,r4,26796
    1d8c:	308b883a 	add	r5,r6,r2
    1d90:	2a400117 	ldw	r9,4(r5)
    1d94:	22000217 	ldw	r8,8(r4)
    1d98:	00ffff04 	movi	r3,-4
    1d9c:	48c6703a 	and	r3,r9,r3
    1da0:	2a005726 	beq	r5,r8,1f00 <_free_r+0x1ac>
    1da4:	28c00115 	stw	r3,4(r5)
    1da8:	39c0004c 	andi	r7,r7,1
    1dac:	3800091e 	bne	r7,zero,1dd4 <_free_r+0x80>
    1db0:	823ffe17 	ldw	r8,-8(r16)
    1db4:	22400204 	addi	r9,r4,8
    1db8:	320dc83a 	sub	r6,r6,r8
    1dbc:	31c00217 	ldw	r7,8(r6)
    1dc0:	1205883a 	add	r2,r2,r8
    1dc4:	3a406526 	beq	r7,r9,1f5c <_free_r+0x208>
    1dc8:	32000317 	ldw	r8,12(r6)
    1dcc:	3a000315 	stw	r8,12(r7)
    1dd0:	41c00215 	stw	r7,8(r8)
    1dd4:	28cf883a 	add	r7,r5,r3
    1dd8:	39c00117 	ldw	r7,4(r7)
    1ddc:	39c0004c 	andi	r7,r7,1
    1de0:	38003a26 	beq	r7,zero,1ecc <_free_r+0x178>
    1de4:	10c00054 	ori	r3,r2,1
    1de8:	30c00115 	stw	r3,4(r6)
    1dec:	3087883a 	add	r3,r6,r2
    1df0:	18800015 	stw	r2,0(r3)
    1df4:	00c07fc4 	movi	r3,511
    1df8:	18801936 	bltu	r3,r2,1e60 <_free_r+0x10c>
    1dfc:	1004d0fa 	srli	r2,r2,3
    1e00:	01c00044 	movi	r7,1
    1e04:	21400117 	ldw	r5,4(r4)
    1e08:	10c00044 	addi	r3,r2,1
    1e0c:	18c7883a 	add	r3,r3,r3
    1e10:	1005d0ba 	srai	r2,r2,2
    1e14:	18c7883a 	add	r3,r3,r3
    1e18:	18c7883a 	add	r3,r3,r3
    1e1c:	1907883a 	add	r3,r3,r4
    1e20:	3884983a 	sll	r2,r7,r2
    1e24:	19c00017 	ldw	r7,0(r3)
    1e28:	1a3ffe04 	addi	r8,r3,-8
    1e2c:	1144b03a 	or	r2,r2,r5
    1e30:	32000315 	stw	r8,12(r6)
    1e34:	31c00215 	stw	r7,8(r6)
    1e38:	20800115 	stw	r2,4(r4)
    1e3c:	19800015 	stw	r6,0(r3)
    1e40:	39800315 	stw	r6,12(r7)
    1e44:	8809883a 	mov	r4,r17
    1e48:	dfc00217 	ldw	ra,8(sp)
    1e4c:	dc400117 	ldw	r17,4(sp)
    1e50:	dc000017 	ldw	r16,0(sp)
    1e54:	dec00304 	addi	sp,sp,12
    1e58:	0012d401 	jmpi	12d40 <__malloc_unlock>
    1e5c:	f800283a 	ret
    1e60:	100ad27a 	srli	r5,r2,9
    1e64:	00c00104 	movi	r3,4
    1e68:	19404a36 	bltu	r3,r5,1f94 <_free_r+0x240>
    1e6c:	100ad1ba 	srli	r5,r2,6
    1e70:	28c00e44 	addi	r3,r5,57
    1e74:	18c7883a 	add	r3,r3,r3
    1e78:	29400e04 	addi	r5,r5,56
    1e7c:	18c7883a 	add	r3,r3,r3
    1e80:	18c7883a 	add	r3,r3,r3
    1e84:	1909883a 	add	r4,r3,r4
    1e88:	20c00017 	ldw	r3,0(r4)
    1e8c:	01c00074 	movhi	r7,1
    1e90:	213ffe04 	addi	r4,r4,-8
    1e94:	39da2b04 	addi	r7,r7,26796
    1e98:	20c04426 	beq	r4,r3,1fac <_free_r+0x258>
    1e9c:	01ffff04 	movi	r7,-4
    1ea0:	19400117 	ldw	r5,4(r3)
    1ea4:	29ca703a 	and	r5,r5,r7
    1ea8:	1140022e 	bgeu	r2,r5,1eb4 <_free_r+0x160>
    1eac:	18c00217 	ldw	r3,8(r3)
    1eb0:	20fffb1e 	bne	r4,r3,1ea0 <__alt_data_end+0xf8001ea0>
    1eb4:	19000317 	ldw	r4,12(r3)
    1eb8:	31000315 	stw	r4,12(r6)
    1ebc:	30c00215 	stw	r3,8(r6)
    1ec0:	21800215 	stw	r6,8(r4)
    1ec4:	19800315 	stw	r6,12(r3)
    1ec8:	003fde06 	br	1e44 <__alt_data_end+0xf8001e44>
    1ecc:	29c00217 	ldw	r7,8(r5)
    1ed0:	10c5883a 	add	r2,r2,r3
    1ed4:	00c00074 	movhi	r3,1
    1ed8:	18da2d04 	addi	r3,r3,26804
    1edc:	38c03b26 	beq	r7,r3,1fcc <_free_r+0x278>
    1ee0:	2a000317 	ldw	r8,12(r5)
    1ee4:	11400054 	ori	r5,r2,1
    1ee8:	3087883a 	add	r3,r6,r2
    1eec:	3a000315 	stw	r8,12(r7)
    1ef0:	41c00215 	stw	r7,8(r8)
    1ef4:	31400115 	stw	r5,4(r6)
    1ef8:	18800015 	stw	r2,0(r3)
    1efc:	003fbd06 	br	1df4 <__alt_data_end+0xf8001df4>
    1f00:	39c0004c 	andi	r7,r7,1
    1f04:	10c5883a 	add	r2,r2,r3
    1f08:	3800071e 	bne	r7,zero,1f28 <_free_r+0x1d4>
    1f0c:	81fffe17 	ldw	r7,-8(r16)
    1f10:	31cdc83a 	sub	r6,r6,r7
    1f14:	30c00317 	ldw	r3,12(r6)
    1f18:	31400217 	ldw	r5,8(r6)
    1f1c:	11c5883a 	add	r2,r2,r7
    1f20:	28c00315 	stw	r3,12(r5)
    1f24:	19400215 	stw	r5,8(r3)
    1f28:	10c00054 	ori	r3,r2,1
    1f2c:	30c00115 	stw	r3,4(r6)
    1f30:	00c000b4 	movhi	r3,2
    1f34:	18e01904 	addi	r3,r3,-32668
    1f38:	18c00017 	ldw	r3,0(r3)
    1f3c:	21800215 	stw	r6,8(r4)
    1f40:	10ffc036 	bltu	r2,r3,1e44 <__alt_data_end+0xf8001e44>
    1f44:	008000b4 	movhi	r2,2
    1f48:	10a74904 	addi	r2,r2,-25308
    1f4c:	11400017 	ldw	r5,0(r2)
    1f50:	8809883a 	mov	r4,r17
    1f54:	0001c300 	call	1c30 <_malloc_trim_r>
    1f58:	003fba06 	br	1e44 <__alt_data_end+0xf8001e44>
    1f5c:	28c9883a 	add	r4,r5,r3
    1f60:	21000117 	ldw	r4,4(r4)
    1f64:	2100004c 	andi	r4,r4,1
    1f68:	2000391e 	bne	r4,zero,2050 <_free_r+0x2fc>
    1f6c:	29c00217 	ldw	r7,8(r5)
    1f70:	29000317 	ldw	r4,12(r5)
    1f74:	1885883a 	add	r2,r3,r2
    1f78:	10c00054 	ori	r3,r2,1
    1f7c:	39000315 	stw	r4,12(r7)
    1f80:	21c00215 	stw	r7,8(r4)
    1f84:	30c00115 	stw	r3,4(r6)
    1f88:	308d883a 	add	r6,r6,r2
    1f8c:	30800015 	stw	r2,0(r6)
    1f90:	003fac06 	br	1e44 <__alt_data_end+0xf8001e44>
    1f94:	00c00504 	movi	r3,20
    1f98:	19401536 	bltu	r3,r5,1ff0 <_free_r+0x29c>
    1f9c:	28c01704 	addi	r3,r5,92
    1fa0:	18c7883a 	add	r3,r3,r3
    1fa4:	294016c4 	addi	r5,r5,91
    1fa8:	003fb406 	br	1e7c <__alt_data_end+0xf8001e7c>
    1fac:	280bd0ba 	srai	r5,r5,2
    1fb0:	00c00044 	movi	r3,1
    1fb4:	38800117 	ldw	r2,4(r7)
    1fb8:	194a983a 	sll	r5,r3,r5
    1fbc:	2007883a 	mov	r3,r4
    1fc0:	2884b03a 	or	r2,r5,r2
    1fc4:	38800115 	stw	r2,4(r7)
    1fc8:	003fbb06 	br	1eb8 <__alt_data_end+0xf8001eb8>
    1fcc:	21800515 	stw	r6,20(r4)
    1fd0:	21800415 	stw	r6,16(r4)
    1fd4:	10c00054 	ori	r3,r2,1
    1fd8:	31c00315 	stw	r7,12(r6)
    1fdc:	31c00215 	stw	r7,8(r6)
    1fe0:	30c00115 	stw	r3,4(r6)
    1fe4:	308d883a 	add	r6,r6,r2
    1fe8:	30800015 	stw	r2,0(r6)
    1fec:	003f9506 	br	1e44 <__alt_data_end+0xf8001e44>
    1ff0:	00c01504 	movi	r3,84
    1ff4:	19400536 	bltu	r3,r5,200c <_free_r+0x2b8>
    1ff8:	100ad33a 	srli	r5,r2,12
    1ffc:	28c01bc4 	addi	r3,r5,111
    2000:	18c7883a 	add	r3,r3,r3
    2004:	29401b84 	addi	r5,r5,110
    2008:	003f9c06 	br	1e7c <__alt_data_end+0xf8001e7c>
    200c:	00c05504 	movi	r3,340
    2010:	19400536 	bltu	r3,r5,2028 <_free_r+0x2d4>
    2014:	100ad3fa 	srli	r5,r2,15
    2018:	28c01e04 	addi	r3,r5,120
    201c:	18c7883a 	add	r3,r3,r3
    2020:	29401dc4 	addi	r5,r5,119
    2024:	003f9506 	br	1e7c <__alt_data_end+0xf8001e7c>
    2028:	00c15504 	movi	r3,1364
    202c:	19400536 	bltu	r3,r5,2044 <_free_r+0x2f0>
    2030:	100ad4ba 	srli	r5,r2,18
    2034:	28c01f44 	addi	r3,r5,125
    2038:	18c7883a 	add	r3,r3,r3
    203c:	29401f04 	addi	r5,r5,124
    2040:	003f8e06 	br	1e7c <__alt_data_end+0xf8001e7c>
    2044:	00c03f84 	movi	r3,254
    2048:	01401f84 	movi	r5,126
    204c:	003f8b06 	br	1e7c <__alt_data_end+0xf8001e7c>
    2050:	10c00054 	ori	r3,r2,1
    2054:	30c00115 	stw	r3,4(r6)
    2058:	308d883a 	add	r6,r6,r2
    205c:	30800015 	stw	r2,0(r6)
    2060:	003f7806 	br	1e44 <__alt_data_end+0xf8001e44>

00002064 <_fseek_r>:
    2064:	00020841 	jmpi	2084 <_fseeko_r>

00002068 <fseek>:
    2068:	008000b4 	movhi	r2,2
    206c:	10a01704 	addi	r2,r2,-32676
    2070:	300f883a 	mov	r7,r6
    2074:	280d883a 	mov	r6,r5
    2078:	200b883a 	mov	r5,r4
    207c:	11000017 	ldw	r4,0(r2)
    2080:	00020841 	jmpi	2084 <_fseeko_r>

00002084 <_fseeko_r>:
    2084:	deffe804 	addi	sp,sp,-96
    2088:	dd401415 	stw	r21,80(sp)
    208c:	dc801115 	stw	r18,68(sp)
    2090:	dc401015 	stw	r17,64(sp)
    2094:	dc000f15 	stw	r16,60(sp)
    2098:	dfc01715 	stw	ra,92(sp)
    209c:	ddc01615 	stw	r23,88(sp)
    20a0:	dd801515 	stw	r22,84(sp)
    20a4:	dd001315 	stw	r20,76(sp)
    20a8:	dcc01215 	stw	r19,72(sp)
    20ac:	2023883a 	mov	r17,r4
    20b0:	2821883a 	mov	r16,r5
    20b4:	302b883a 	mov	r21,r6
    20b8:	3825883a 	mov	r18,r7
    20bc:	20000226 	beq	r4,zero,20c8 <_fseeko_r+0x44>
    20c0:	20800e17 	ldw	r2,56(r4)
    20c4:	10005a26 	beq	r2,zero,2230 <_fseeko_r+0x1ac>
    20c8:	8080030b 	ldhu	r2,12(r16)
    20cc:	00c04204 	movi	r3,264
    20d0:	1080420c 	andi	r2,r2,264
    20d4:	10c05b26 	beq	r2,r3,2244 <_fseeko_r+0x1c0>
    20d8:	85000a17 	ldw	r20,40(r16)
    20dc:	a000f626 	beq	r20,zero,24b8 <_fseeko_r+0x434>
    20e0:	00800044 	movi	r2,1
    20e4:	90803e26 	beq	r18,r2,21e0 <_fseeko_r+0x15c>
    20e8:	00800084 	movi	r2,2
    20ec:	90801026 	beq	r18,r2,2130 <_fseeko_r+0xac>
    20f0:	90000f26 	beq	r18,zero,2130 <_fseeko_r+0xac>
    20f4:	00800584 	movi	r2,22
    20f8:	88800015 	stw	r2,0(r17)
    20fc:	04ffffc4 	movi	r19,-1
    2100:	9805883a 	mov	r2,r19
    2104:	dfc01717 	ldw	ra,92(sp)
    2108:	ddc01617 	ldw	r23,88(sp)
    210c:	dd801517 	ldw	r22,84(sp)
    2110:	dd401417 	ldw	r21,80(sp)
    2114:	dd001317 	ldw	r20,76(sp)
    2118:	dcc01217 	ldw	r19,72(sp)
    211c:	dc801117 	ldw	r18,68(sp)
    2120:	dc401017 	ldw	r17,64(sp)
    2124:	dc000f17 	ldw	r16,60(sp)
    2128:	dec01804 	addi	sp,sp,96
    212c:	f800283a 	ret
    2130:	80800417 	ldw	r2,16(r16)
    2134:	002f883a 	mov	r23,zero
    2138:	0027883a 	mov	r19,zero
    213c:	1000cb26 	beq	r2,zero,246c <_fseeko_r+0x3e8>
    2140:	8080030b 	ldhu	r2,12(r16)
    2144:	10c2068c 	andi	r3,r2,2074
    2148:	1800071e 	bne	r3,zero,2168 <_fseeko_r+0xe4>
    214c:	10c1000c 	andi	r3,r2,1024
    2150:	1800451e 	bne	r3,zero,2268 <_fseeko_r+0x1e4>
    2154:	00c00034 	movhi	r3,0
    2158:	18ce1204 	addi	r3,r3,14408
    215c:	a0c0b726 	beq	r20,r3,243c <_fseeko_r+0x3b8>
    2160:	10820014 	ori	r2,r2,2048
    2164:	8080030d 	sth	r2,12(r16)
    2168:	800b883a 	mov	r5,r16
    216c:	8809883a 	mov	r4,r17
    2170:	000169c0 	call	169c <_fflush_r>
    2174:	1027883a 	mov	r19,r2
    2178:	103fe01e 	bne	r2,zero,20fc <__alt_data_end+0xf80020fc>
    217c:	81400717 	ldw	r5,28(r16)
    2180:	900f883a 	mov	r7,r18
    2184:	a80d883a 	mov	r6,r21
    2188:	8809883a 	mov	r4,r17
    218c:	a03ee83a 	callr	r20
    2190:	00ffffc4 	movi	r3,-1
    2194:	10ffd926 	beq	r2,r3,20fc <__alt_data_end+0xf80020fc>
    2198:	81400c17 	ldw	r5,48(r16)
    219c:	28000526 	beq	r5,zero,21b4 <_fseeko_r+0x130>
    21a0:	80801004 	addi	r2,r16,64
    21a4:	28800226 	beq	r5,r2,21b0 <_fseeko_r+0x12c>
    21a8:	8809883a 	mov	r4,r17
    21ac:	0001d540 	call	1d54 <_free_r>
    21b0:	80000c15 	stw	zero,48(r16)
    21b4:	8080030b 	ldhu	r2,12(r16)
    21b8:	80c00417 	ldw	r3,16(r16)
    21bc:	80000115 	stw	zero,4(r16)
    21c0:	10bdf7cc 	andi	r2,r2,63455
    21c4:	80c00015 	stw	r3,0(r16)
    21c8:	8080030d 	sth	r2,12(r16)
    21cc:	01800204 	movi	r6,8
    21d0:	000b883a 	mov	r5,zero
    21d4:	81001704 	addi	r4,r16,92
    21d8:	00031a00 	call	31a0 <memset>
    21dc:	003fc806 	br	2100 <__alt_data_end+0xf8002100>
    21e0:	800b883a 	mov	r5,r16
    21e4:	8809883a 	mov	r4,r17
    21e8:	000169c0 	call	169c <_fflush_r>
    21ec:	8080030b 	ldhu	r2,12(r16)
    21f0:	10c4000c 	andi	r3,r2,4096
    21f4:	18008726 	beq	r3,zero,2414 <_fseeko_r+0x390>
    21f8:	84c01417 	ldw	r19,80(r16)
    21fc:	10c0010c 	andi	r3,r2,4
    2200:	1800431e 	bne	r3,zero,2310 <_fseeko_r+0x28c>
    2204:	1080020c 	andi	r2,r2,8
    2208:	10008026 	beq	r2,zero,240c <_fseeko_r+0x388>
    220c:	80c00017 	ldw	r3,0(r16)
    2210:	80800417 	ldw	r2,16(r16)
    2214:	18000226 	beq	r3,zero,2220 <_fseeko_r+0x19c>
    2218:	1887c83a 	sub	r3,r3,r2
    221c:	98e7883a 	add	r19,r19,r3
    2220:	aceb883a 	add	r21,r21,r19
    2224:	05c00044 	movi	r23,1
    2228:	0025883a 	mov	r18,zero
    222c:	003fc306 	br	213c <__alt_data_end+0xf800213c>
    2230:	0001a880 	call	1a88 <__sinit>
    2234:	8080030b 	ldhu	r2,12(r16)
    2238:	00c04204 	movi	r3,264
    223c:	1080420c 	andi	r2,r2,264
    2240:	10ffa51e 	bne	r2,r3,20d8 <__alt_data_end+0xf80020d8>
    2244:	800b883a 	mov	r5,r16
    2248:	8809883a 	mov	r4,r17
    224c:	000169c0 	call	169c <_fflush_r>
    2250:	003fa106 	br	20d8 <__alt_data_end+0xf80020d8>
    2254:	8080030b 	ldhu	r2,12(r16)
    2258:	00c10004 	movi	r3,1024
    225c:	80c01315 	stw	r3,76(r16)
    2260:	10c4b03a 	or	r2,r2,r3
    2264:	8080030d 	sth	r2,12(r16)
    2268:	9000311e 	bne	r18,zero,2330 <_fseeko_r+0x2ac>
    226c:	a82d883a 	mov	r22,r21
    2270:	b800371e 	bne	r23,zero,2350 <_fseeko_r+0x2cc>
    2274:	8080030b 	ldhu	r2,12(r16)
    2278:	1084000c 	andi	r2,r2,4096
    227c:	10007f26 	beq	r2,zero,247c <_fseeko_r+0x3f8>
    2280:	80801417 	ldw	r2,80(r16)
    2284:	81800117 	ldw	r6,4(r16)
    2288:	81400c17 	ldw	r5,48(r16)
    228c:	11a7c83a 	sub	r19,r2,r6
    2290:	28008226 	beq	r5,zero,249c <_fseeko_r+0x418>
    2294:	81c00f17 	ldw	r7,60(r16)
    2298:	99e7c83a 	sub	r19,r19,r7
    229c:	81000e17 	ldw	r4,56(r16)
    22a0:	80800417 	ldw	r2,16(r16)
    22a4:	99a7883a 	add	r19,r19,r6
    22a8:	2087c83a 	sub	r3,r4,r2
    22ac:	98e7c83a 	sub	r19,r19,r3
    22b0:	38c7883a 	add	r3,r7,r3
    22b4:	b4c02b16 	blt	r22,r19,2364 <_fseeko_r+0x2e0>
    22b8:	98c9883a 	add	r4,r19,r3
    22bc:	b100292e 	bgeu	r22,r4,2364 <_fseeko_r+0x2e0>
    22c0:	b4e7c83a 	sub	r19,r22,r19
    22c4:	14c5883a 	add	r2,r2,r19
    22c8:	1ce7c83a 	sub	r19,r3,r19
    22cc:	80800015 	stw	r2,0(r16)
    22d0:	84c00115 	stw	r19,4(r16)
    22d4:	28000526 	beq	r5,zero,22ec <_fseeko_r+0x268>
    22d8:	80801004 	addi	r2,r16,64
    22dc:	28800226 	beq	r5,r2,22e8 <_fseeko_r+0x264>
    22e0:	8809883a 	mov	r4,r17
    22e4:	0001d540 	call	1d54 <_free_r>
    22e8:	80000c15 	stw	zero,48(r16)
    22ec:	8080030b 	ldhu	r2,12(r16)
    22f0:	01800204 	movi	r6,8
    22f4:	000b883a 	mov	r5,zero
    22f8:	10bff7cc 	andi	r2,r2,65503
    22fc:	8080030d 	sth	r2,12(r16)
    2300:	81001704 	addi	r4,r16,92
    2304:	00031a00 	call	31a0 <memset>
    2308:	0027883a 	mov	r19,zero
    230c:	003f7c06 	br	2100 <__alt_data_end+0xf8002100>
    2310:	80c00117 	ldw	r3,4(r16)
    2314:	80800c17 	ldw	r2,48(r16)
    2318:	98e7c83a 	sub	r19,r19,r3
    231c:	10003b26 	beq	r2,zero,240c <_fseeko_r+0x388>
    2320:	80c00f17 	ldw	r3,60(r16)
    2324:	80800417 	ldw	r2,16(r16)
    2328:	98e7c83a 	sub	r19,r19,r3
    232c:	003fbc06 	br	2220 <__alt_data_end+0xf8002220>
    2330:	8140038f 	ldh	r5,14(r16)
    2334:	d80d883a 	mov	r6,sp
    2338:	8809883a 	mov	r4,r17
    233c:	00024e40 	call	24e4 <_fstat_r>
    2340:	103f891e 	bne	r2,zero,2168 <__alt_data_end+0xf8002168>
    2344:	dd800417 	ldw	r22,16(sp)
    2348:	adad883a 	add	r22,r21,r22
    234c:	b83fc926 	beq	r23,zero,2274 <__alt_data_end+0xf8002274>
    2350:	81400c17 	ldw	r5,48(r16)
    2354:	81800117 	ldw	r6,4(r16)
    2358:	28005026 	beq	r5,zero,249c <_fseeko_r+0x418>
    235c:	81c00f17 	ldw	r7,60(r16)
    2360:	003fce06 	br	229c <__alt_data_end+0xf800229c>
    2364:	84c01317 	ldw	r19,76(r16)
    2368:	81400717 	ldw	r5,28(r16)
    236c:	000f883a 	mov	r7,zero
    2370:	04e7c83a 	sub	r19,zero,r19
    2374:	9da6703a 	and	r19,r19,r22
    2378:	980d883a 	mov	r6,r19
    237c:	8809883a 	mov	r4,r17
    2380:	a03ee83a 	callr	r20
    2384:	00ffffc4 	movi	r3,-1
    2388:	10ff7726 	beq	r2,r3,2168 <__alt_data_end+0xf8002168>
    238c:	80800417 	ldw	r2,16(r16)
    2390:	81400c17 	ldw	r5,48(r16)
    2394:	80000115 	stw	zero,4(r16)
    2398:	80800015 	stw	r2,0(r16)
    239c:	28000526 	beq	r5,zero,23b4 <_fseeko_r+0x330>
    23a0:	80801004 	addi	r2,r16,64
    23a4:	28800226 	beq	r5,r2,23b0 <_fseeko_r+0x32c>
    23a8:	8809883a 	mov	r4,r17
    23ac:	0001d540 	call	1d54 <_free_r>
    23b0:	80000c15 	stw	zero,48(r16)
    23b4:	8080030b 	ldhu	r2,12(r16)
    23b8:	b4e7c83a 	sub	r19,r22,r19
    23bc:	10bff7cc 	andi	r2,r2,65503
    23c0:	8080030d 	sth	r2,12(r16)
    23c4:	98000b26 	beq	r19,zero,23f4 <_fseeko_r+0x370>
    23c8:	800b883a 	mov	r5,r16
    23cc:	8809883a 	mov	r4,r17
    23d0:	00034840 	call	3484 <__srefill_r>
    23d4:	103f641e 	bne	r2,zero,2168 <__alt_data_end+0xf8002168>
    23d8:	80800117 	ldw	r2,4(r16)
    23dc:	14ff6236 	bltu	r2,r19,2168 <__alt_data_end+0xf8002168>
    23e0:	80c00017 	ldw	r3,0(r16)
    23e4:	14c5c83a 	sub	r2,r2,r19
    23e8:	80800115 	stw	r2,4(r16)
    23ec:	1ce7883a 	add	r19,r3,r19
    23f0:	84c00015 	stw	r19,0(r16)
    23f4:	01800204 	movi	r6,8
    23f8:	000b883a 	mov	r5,zero
    23fc:	81001704 	addi	r4,r16,92
    2400:	00031a00 	call	31a0 <memset>
    2404:	0027883a 	mov	r19,zero
    2408:	003f3d06 	br	2100 <__alt_data_end+0xf8002100>
    240c:	80800417 	ldw	r2,16(r16)
    2410:	003f8306 	br	2220 <__alt_data_end+0xf8002220>
    2414:	81400717 	ldw	r5,28(r16)
    2418:	900f883a 	mov	r7,r18
    241c:	000d883a 	mov	r6,zero
    2420:	8809883a 	mov	r4,r17
    2424:	a03ee83a 	callr	r20
    2428:	1027883a 	mov	r19,r2
    242c:	00bfffc4 	movi	r2,-1
    2430:	98bf3226 	beq	r19,r2,20fc <__alt_data_end+0xf80020fc>
    2434:	8080030b 	ldhu	r2,12(r16)
    2438:	003f7006 	br	21fc <__alt_data_end+0xf80021fc>
    243c:	8140038f 	ldh	r5,14(r16)
    2440:	283f4716 	blt	r5,zero,2160 <__alt_data_end+0xf8002160>
    2444:	d80d883a 	mov	r6,sp
    2448:	8809883a 	mov	r4,r17
    244c:	00024e40 	call	24e4 <_fstat_r>
    2450:	1000041e 	bne	r2,zero,2464 <_fseeko_r+0x3e0>
    2454:	d8800117 	ldw	r2,4(sp)
    2458:	00e00014 	movui	r3,32768
    245c:	10bc000c 	andi	r2,r2,61440
    2460:	10ff7c26 	beq	r2,r3,2254 <__alt_data_end+0xf8002254>
    2464:	8080030b 	ldhu	r2,12(r16)
    2468:	003f3d06 	br	2160 <__alt_data_end+0xf8002160>
    246c:	800b883a 	mov	r5,r16
    2470:	8809883a 	mov	r4,r17
    2474:	00027d80 	call	27d8 <__smakebuf_r>
    2478:	003f3106 	br	2140 <__alt_data_end+0xf8002140>
    247c:	81400717 	ldw	r5,28(r16)
    2480:	01c00044 	movi	r7,1
    2484:	000d883a 	mov	r6,zero
    2488:	8809883a 	mov	r4,r17
    248c:	a03ee83a 	callr	r20
    2490:	00ffffc4 	movi	r3,-1
    2494:	10ff7b1e 	bne	r2,r3,2284 <__alt_data_end+0xf8002284>
    2498:	003f3306 	br	2168 <__alt_data_end+0xf8002168>
    249c:	80c00017 	ldw	r3,0(r16)
    24a0:	80800417 	ldw	r2,16(r16)
    24a4:	000b883a 	mov	r5,zero
    24a8:	1887c83a 	sub	r3,r3,r2
    24ac:	98e7c83a 	sub	r19,r19,r3
    24b0:	30c7883a 	add	r3,r6,r3
    24b4:	003f7f06 	br	22b4 <__alt_data_end+0xf80022b4>
    24b8:	00800744 	movi	r2,29
    24bc:	88800015 	stw	r2,0(r17)
    24c0:	04ffffc4 	movi	r19,-1
    24c4:	003f0e06 	br	2100 <__alt_data_end+0xf8002100>

000024c8 <fseeko>:
    24c8:	008000b4 	movhi	r2,2
    24cc:	10a01704 	addi	r2,r2,-32676
    24d0:	300f883a 	mov	r7,r6
    24d4:	280d883a 	mov	r6,r5
    24d8:	200b883a 	mov	r5,r4
    24dc:	11000017 	ldw	r4,0(r2)
    24e0:	00020841 	jmpi	2084 <_fseeko_r>

000024e4 <_fstat_r>:
    24e4:	defffd04 	addi	sp,sp,-12
    24e8:	2805883a 	mov	r2,r5
    24ec:	dc000015 	stw	r16,0(sp)
    24f0:	040000b4 	movhi	r16,2
    24f4:	dc400115 	stw	r17,4(sp)
    24f8:	84274604 	addi	r16,r16,-25320
    24fc:	2023883a 	mov	r17,r4
    2500:	300b883a 	mov	r5,r6
    2504:	1009883a 	mov	r4,r2
    2508:	dfc00215 	stw	ra,8(sp)
    250c:	80000015 	stw	zero,0(r16)
    2510:	001265c0 	call	1265c <fstat>
    2514:	00ffffc4 	movi	r3,-1
    2518:	10c00526 	beq	r2,r3,2530 <_fstat_r+0x4c>
    251c:	dfc00217 	ldw	ra,8(sp)
    2520:	dc400117 	ldw	r17,4(sp)
    2524:	dc000017 	ldw	r16,0(sp)
    2528:	dec00304 	addi	sp,sp,12
    252c:	f800283a 	ret
    2530:	80c00017 	ldw	r3,0(r16)
    2534:	183ff926 	beq	r3,zero,251c <__alt_data_end+0xf800251c>
    2538:	88c00015 	stw	r3,0(r17)
    253c:	003ff706 	br	251c <__alt_data_end+0xf800251c>

00002540 <_fwalk>:
    2540:	defff704 	addi	sp,sp,-36
    2544:	dd000415 	stw	r20,16(sp)
    2548:	dfc00815 	stw	ra,32(sp)
    254c:	ddc00715 	stw	r23,28(sp)
    2550:	dd800615 	stw	r22,24(sp)
    2554:	dd400515 	stw	r21,20(sp)
    2558:	dcc00315 	stw	r19,12(sp)
    255c:	dc800215 	stw	r18,8(sp)
    2560:	dc400115 	stw	r17,4(sp)
    2564:	dc000015 	stw	r16,0(sp)
    2568:	2500b804 	addi	r20,r4,736
    256c:	a0002326 	beq	r20,zero,25fc <_fwalk+0xbc>
    2570:	282b883a 	mov	r21,r5
    2574:	002f883a 	mov	r23,zero
    2578:	05800044 	movi	r22,1
    257c:	04ffffc4 	movi	r19,-1
    2580:	a4400117 	ldw	r17,4(r20)
    2584:	a4800217 	ldw	r18,8(r20)
    2588:	8c7fffc4 	addi	r17,r17,-1
    258c:	88000d16 	blt	r17,zero,25c4 <_fwalk+0x84>
    2590:	94000304 	addi	r16,r18,12
    2594:	94800384 	addi	r18,r18,14
    2598:	8080000b 	ldhu	r2,0(r16)
    259c:	8c7fffc4 	addi	r17,r17,-1
    25a0:	813ffd04 	addi	r4,r16,-12
    25a4:	b080042e 	bgeu	r22,r2,25b8 <_fwalk+0x78>
    25a8:	9080000f 	ldh	r2,0(r18)
    25ac:	14c00226 	beq	r2,r19,25b8 <_fwalk+0x78>
    25b0:	a83ee83a 	callr	r21
    25b4:	b8aeb03a 	or	r23,r23,r2
    25b8:	84001a04 	addi	r16,r16,104
    25bc:	94801a04 	addi	r18,r18,104
    25c0:	8cfff51e 	bne	r17,r19,2598 <__alt_data_end+0xf8002598>
    25c4:	a5000017 	ldw	r20,0(r20)
    25c8:	a03fed1e 	bne	r20,zero,2580 <__alt_data_end+0xf8002580>
    25cc:	b805883a 	mov	r2,r23
    25d0:	dfc00817 	ldw	ra,32(sp)
    25d4:	ddc00717 	ldw	r23,28(sp)
    25d8:	dd800617 	ldw	r22,24(sp)
    25dc:	dd400517 	ldw	r21,20(sp)
    25e0:	dd000417 	ldw	r20,16(sp)
    25e4:	dcc00317 	ldw	r19,12(sp)
    25e8:	dc800217 	ldw	r18,8(sp)
    25ec:	dc400117 	ldw	r17,4(sp)
    25f0:	dc000017 	ldw	r16,0(sp)
    25f4:	dec00904 	addi	sp,sp,36
    25f8:	f800283a 	ret
    25fc:	002f883a 	mov	r23,zero
    2600:	003ff206 	br	25cc <__alt_data_end+0xf80025cc>

00002604 <_fwalk_reent>:
    2604:	defff704 	addi	sp,sp,-36
    2608:	dd000415 	stw	r20,16(sp)
    260c:	dfc00815 	stw	ra,32(sp)
    2610:	ddc00715 	stw	r23,28(sp)
    2614:	dd800615 	stw	r22,24(sp)
    2618:	dd400515 	stw	r21,20(sp)
    261c:	dcc00315 	stw	r19,12(sp)
    2620:	dc800215 	stw	r18,8(sp)
    2624:	dc400115 	stw	r17,4(sp)
    2628:	dc000015 	stw	r16,0(sp)
    262c:	2500b804 	addi	r20,r4,736
    2630:	a0002326 	beq	r20,zero,26c0 <_fwalk_reent+0xbc>
    2634:	282b883a 	mov	r21,r5
    2638:	2027883a 	mov	r19,r4
    263c:	002f883a 	mov	r23,zero
    2640:	05800044 	movi	r22,1
    2644:	04bfffc4 	movi	r18,-1
    2648:	a4400117 	ldw	r17,4(r20)
    264c:	a4000217 	ldw	r16,8(r20)
    2650:	8c7fffc4 	addi	r17,r17,-1
    2654:	88000c16 	blt	r17,zero,2688 <_fwalk_reent+0x84>
    2658:	84000304 	addi	r16,r16,12
    265c:	8080000b 	ldhu	r2,0(r16)
    2660:	8c7fffc4 	addi	r17,r17,-1
    2664:	817ffd04 	addi	r5,r16,-12
    2668:	b080052e 	bgeu	r22,r2,2680 <_fwalk_reent+0x7c>
    266c:	8080008f 	ldh	r2,2(r16)
    2670:	9809883a 	mov	r4,r19
    2674:	14800226 	beq	r2,r18,2680 <_fwalk_reent+0x7c>
    2678:	a83ee83a 	callr	r21
    267c:	b8aeb03a 	or	r23,r23,r2
    2680:	84001a04 	addi	r16,r16,104
    2684:	8cbff51e 	bne	r17,r18,265c <__alt_data_end+0xf800265c>
    2688:	a5000017 	ldw	r20,0(r20)
    268c:	a03fee1e 	bne	r20,zero,2648 <__alt_data_end+0xf8002648>
    2690:	b805883a 	mov	r2,r23
    2694:	dfc00817 	ldw	ra,32(sp)
    2698:	ddc00717 	ldw	r23,28(sp)
    269c:	dd800617 	ldw	r22,24(sp)
    26a0:	dd400517 	ldw	r21,20(sp)
    26a4:	dd000417 	ldw	r20,16(sp)
    26a8:	dcc00317 	ldw	r19,12(sp)
    26ac:	dc800217 	ldw	r18,8(sp)
    26b0:	dc400117 	ldw	r17,4(sp)
    26b4:	dc000017 	ldw	r16,0(sp)
    26b8:	dec00904 	addi	sp,sp,36
    26bc:	f800283a 	ret
    26c0:	002f883a 	mov	r23,zero
    26c4:	003ff206 	br	2690 <__alt_data_end+0xf8002690>

000026c8 <_fwrite_r>:
    26c8:	defff504 	addi	sp,sp,-44
    26cc:	dc400715 	stw	r17,28(sp)
    26d0:	d9400315 	stw	r5,12(sp)
    26d4:	2023883a 	mov	r17,r4
    26d8:	300b883a 	mov	r5,r6
    26dc:	3809883a 	mov	r4,r7
    26e0:	dcc00915 	stw	r19,36(sp)
    26e4:	dc800815 	stw	r18,32(sp)
    26e8:	dc000615 	stw	r16,24(sp)
    26ec:	dfc00a15 	stw	ra,40(sp)
    26f0:	3027883a 	mov	r19,r6
    26f4:	3821883a 	mov	r16,r7
    26f8:	000fc140 	call	fc14 <__mulsi3>
    26fc:	1025883a 	mov	r18,r2
    2700:	d8800415 	stw	r2,16(sp)
    2704:	d8800215 	stw	r2,8(sp)
    2708:	d8800304 	addi	r2,sp,12
    270c:	d8800015 	stw	r2,0(sp)
    2710:	00800044 	movi	r2,1
    2714:	d8800115 	stw	r2,4(sp)
    2718:	d9400b17 	ldw	r5,44(sp)
    271c:	88000226 	beq	r17,zero,2728 <_fwrite_r+0x60>
    2720:	88800e17 	ldw	r2,56(r17)
    2724:	10001a26 	beq	r2,zero,2790 <_fwrite_r+0xc8>
    2728:	2880030b 	ldhu	r2,12(r5)
    272c:	10c8000c 	andi	r3,r2,8192
    2730:	1800061e 	bne	r3,zero,274c <_fwrite_r+0x84>
    2734:	29001917 	ldw	r4,100(r5)
    2738:	00f7ffc4 	movi	r3,-8193
    273c:	10880014 	ori	r2,r2,8192
    2740:	20c6703a 	and	r3,r4,r3
    2744:	2880030d 	sth	r2,12(r5)
    2748:	28c01915 	stw	r3,100(r5)
    274c:	d80d883a 	mov	r6,sp
    2750:	8809883a 	mov	r4,r17
    2754:	0009c1c0 	call	9c1c <__sfvwrite_r>
    2758:	10000b26 	beq	r2,zero,2788 <_fwrite_r+0xc0>
    275c:	d9000217 	ldw	r4,8(sp)
    2760:	980b883a 	mov	r5,r19
    2764:	9109c83a 	sub	r4,r18,r4
    2768:	00013c40 	call	13c4 <__udivsi3>
    276c:	dfc00a17 	ldw	ra,40(sp)
    2770:	dcc00917 	ldw	r19,36(sp)
    2774:	dc800817 	ldw	r18,32(sp)
    2778:	dc400717 	ldw	r17,28(sp)
    277c:	dc000617 	ldw	r16,24(sp)
    2780:	dec00b04 	addi	sp,sp,44
    2784:	f800283a 	ret
    2788:	8005883a 	mov	r2,r16
    278c:	003ff706 	br	276c <__alt_data_end+0xf800276c>
    2790:	8809883a 	mov	r4,r17
    2794:	d9400515 	stw	r5,20(sp)
    2798:	0001a880 	call	1a88 <__sinit>
    279c:	d9400517 	ldw	r5,20(sp)
    27a0:	003fe106 	br	2728 <__alt_data_end+0xf8002728>

000027a4 <fwrite>:
    27a4:	defffe04 	addi	sp,sp,-8
    27a8:	008000b4 	movhi	r2,2
    27ac:	d9c00015 	stw	r7,0(sp)
    27b0:	10a01704 	addi	r2,r2,-32676
    27b4:	300f883a 	mov	r7,r6
    27b8:	280d883a 	mov	r6,r5
    27bc:	200b883a 	mov	r5,r4
    27c0:	11000017 	ldw	r4,0(r2)
    27c4:	dfc00115 	stw	ra,4(sp)
    27c8:	00026c80 	call	26c8 <_fwrite_r>
    27cc:	dfc00117 	ldw	ra,4(sp)
    27d0:	dec00204 	addi	sp,sp,8
    27d4:	f800283a 	ret

000027d8 <__smakebuf_r>:
    27d8:	2880030b 	ldhu	r2,12(r5)
    27dc:	10c0008c 	andi	r3,r2,2
    27e0:	1800411e 	bne	r3,zero,28e8 <__smakebuf_r+0x110>
    27e4:	deffec04 	addi	sp,sp,-80
    27e8:	dc000f15 	stw	r16,60(sp)
    27ec:	2821883a 	mov	r16,r5
    27f0:	2940038f 	ldh	r5,14(r5)
    27f4:	dc401015 	stw	r17,64(sp)
    27f8:	dfc01315 	stw	ra,76(sp)
    27fc:	dcc01215 	stw	r19,72(sp)
    2800:	dc801115 	stw	r18,68(sp)
    2804:	2023883a 	mov	r17,r4
    2808:	28001c16 	blt	r5,zero,287c <__smakebuf_r+0xa4>
    280c:	d80d883a 	mov	r6,sp
    2810:	00024e40 	call	24e4 <_fstat_r>
    2814:	10001816 	blt	r2,zero,2878 <__smakebuf_r+0xa0>
    2818:	d8800117 	ldw	r2,4(sp)
    281c:	00e00014 	movui	r3,32768
    2820:	10bc000c 	andi	r2,r2,61440
    2824:	14c80020 	cmpeqi	r19,r2,8192
    2828:	10c03726 	beq	r2,r3,2908 <__smakebuf_r+0x130>
    282c:	80c0030b 	ldhu	r3,12(r16)
    2830:	18c20014 	ori	r3,r3,2048
    2834:	80c0030d 	sth	r3,12(r16)
    2838:	00c80004 	movi	r3,8192
    283c:	10c0521e 	bne	r2,r3,2988 <__smakebuf_r+0x1b0>
    2840:	8140038f 	ldh	r5,14(r16)
    2844:	8809883a 	mov	r4,r17
    2848:	000a0e40 	call	a0e4 <_isatty_r>
    284c:	10004c26 	beq	r2,zero,2980 <__smakebuf_r+0x1a8>
    2850:	8080030b 	ldhu	r2,12(r16)
    2854:	80c010c4 	addi	r3,r16,67
    2858:	80c00015 	stw	r3,0(r16)
    285c:	10800054 	ori	r2,r2,1
    2860:	8080030d 	sth	r2,12(r16)
    2864:	00800044 	movi	r2,1
    2868:	80c00415 	stw	r3,16(r16)
    286c:	80800515 	stw	r2,20(r16)
    2870:	04810004 	movi	r18,1024
    2874:	00000706 	br	2894 <__smakebuf_r+0xbc>
    2878:	8080030b 	ldhu	r2,12(r16)
    287c:	10c0200c 	andi	r3,r2,128
    2880:	18001f1e 	bne	r3,zero,2900 <__smakebuf_r+0x128>
    2884:	04810004 	movi	r18,1024
    2888:	10820014 	ori	r2,r2,2048
    288c:	8080030d 	sth	r2,12(r16)
    2890:	0027883a 	mov	r19,zero
    2894:	900b883a 	mov	r5,r18
    2898:	8809883a 	mov	r4,r17
    289c:	00029940 	call	2994 <_malloc_r>
    28a0:	10002c26 	beq	r2,zero,2954 <__smakebuf_r+0x17c>
    28a4:	80c0030b 	ldhu	r3,12(r16)
    28a8:	01000034 	movhi	r4,0
    28ac:	2105cc04 	addi	r4,r4,5936
    28b0:	89000f15 	stw	r4,60(r17)
    28b4:	18c02014 	ori	r3,r3,128
    28b8:	80c0030d 	sth	r3,12(r16)
    28bc:	80800015 	stw	r2,0(r16)
    28c0:	80800415 	stw	r2,16(r16)
    28c4:	84800515 	stw	r18,20(r16)
    28c8:	98001a1e 	bne	r19,zero,2934 <__smakebuf_r+0x15c>
    28cc:	dfc01317 	ldw	ra,76(sp)
    28d0:	dcc01217 	ldw	r19,72(sp)
    28d4:	dc801117 	ldw	r18,68(sp)
    28d8:	dc401017 	ldw	r17,64(sp)
    28dc:	dc000f17 	ldw	r16,60(sp)
    28e0:	dec01404 	addi	sp,sp,80
    28e4:	f800283a 	ret
    28e8:	288010c4 	addi	r2,r5,67
    28ec:	28800015 	stw	r2,0(r5)
    28f0:	28800415 	stw	r2,16(r5)
    28f4:	00800044 	movi	r2,1
    28f8:	28800515 	stw	r2,20(r5)
    28fc:	f800283a 	ret
    2900:	04801004 	movi	r18,64
    2904:	003fe006 	br	2888 <__alt_data_end+0xf8002888>
    2908:	81000a17 	ldw	r4,40(r16)
    290c:	00c00034 	movhi	r3,0
    2910:	18ce1204 	addi	r3,r3,14408
    2914:	20ffc51e 	bne	r4,r3,282c <__alt_data_end+0xf800282c>
    2918:	8080030b 	ldhu	r2,12(r16)
    291c:	04810004 	movi	r18,1024
    2920:	84801315 	stw	r18,76(r16)
    2924:	1484b03a 	or	r2,r2,r18
    2928:	8080030d 	sth	r2,12(r16)
    292c:	0027883a 	mov	r19,zero
    2930:	003fd806 	br	2894 <__alt_data_end+0xf8002894>
    2934:	8140038f 	ldh	r5,14(r16)
    2938:	8809883a 	mov	r4,r17
    293c:	000a0e40 	call	a0e4 <_isatty_r>
    2940:	103fe226 	beq	r2,zero,28cc <__alt_data_end+0xf80028cc>
    2944:	8080030b 	ldhu	r2,12(r16)
    2948:	10800054 	ori	r2,r2,1
    294c:	8080030d 	sth	r2,12(r16)
    2950:	003fde06 	br	28cc <__alt_data_end+0xf80028cc>
    2954:	8080030b 	ldhu	r2,12(r16)
    2958:	10c0800c 	andi	r3,r2,512
    295c:	183fdb1e 	bne	r3,zero,28cc <__alt_data_end+0xf80028cc>
    2960:	10800094 	ori	r2,r2,2
    2964:	80c010c4 	addi	r3,r16,67
    2968:	8080030d 	sth	r2,12(r16)
    296c:	00800044 	movi	r2,1
    2970:	80c00015 	stw	r3,0(r16)
    2974:	80c00415 	stw	r3,16(r16)
    2978:	80800515 	stw	r2,20(r16)
    297c:	003fd306 	br	28cc <__alt_data_end+0xf80028cc>
    2980:	04810004 	movi	r18,1024
    2984:	003fc306 	br	2894 <__alt_data_end+0xf8002894>
    2988:	0027883a 	mov	r19,zero
    298c:	04810004 	movi	r18,1024
    2990:	003fc006 	br	2894 <__alt_data_end+0xf8002894>

00002994 <_malloc_r>:
    2994:	defff504 	addi	sp,sp,-44
    2998:	dc800315 	stw	r18,12(sp)
    299c:	dfc00a15 	stw	ra,40(sp)
    29a0:	df000915 	stw	fp,36(sp)
    29a4:	ddc00815 	stw	r23,32(sp)
    29a8:	dd800715 	stw	r22,28(sp)
    29ac:	dd400615 	stw	r21,24(sp)
    29b0:	dd000515 	stw	r20,20(sp)
    29b4:	dcc00415 	stw	r19,16(sp)
    29b8:	dc400215 	stw	r17,8(sp)
    29bc:	dc000115 	stw	r16,4(sp)
    29c0:	288002c4 	addi	r2,r5,11
    29c4:	00c00584 	movi	r3,22
    29c8:	2025883a 	mov	r18,r4
    29cc:	18807f2e 	bgeu	r3,r2,2bcc <_malloc_r+0x238>
    29d0:	047ffe04 	movi	r17,-8
    29d4:	1462703a 	and	r17,r2,r17
    29d8:	8800a316 	blt	r17,zero,2c68 <_malloc_r+0x2d4>
    29dc:	8940a236 	bltu	r17,r5,2c68 <_malloc_r+0x2d4>
    29e0:	0012d1c0 	call	12d1c <__malloc_lock>
    29e4:	00807dc4 	movi	r2,503
    29e8:	1441e92e 	bgeu	r2,r17,3190 <_malloc_r+0x7fc>
    29ec:	8804d27a 	srli	r2,r17,9
    29f0:	1000a126 	beq	r2,zero,2c78 <_malloc_r+0x2e4>
    29f4:	00c00104 	movi	r3,4
    29f8:	18811e36 	bltu	r3,r2,2e74 <_malloc_r+0x4e0>
    29fc:	8804d1ba 	srli	r2,r17,6
    2a00:	12000e44 	addi	r8,r2,57
    2a04:	11c00e04 	addi	r7,r2,56
    2a08:	4209883a 	add	r4,r8,r8
    2a0c:	04c00074 	movhi	r19,1
    2a10:	2109883a 	add	r4,r4,r4
    2a14:	9cda2b04 	addi	r19,r19,26796
    2a18:	2109883a 	add	r4,r4,r4
    2a1c:	9909883a 	add	r4,r19,r4
    2a20:	24000117 	ldw	r16,4(r4)
    2a24:	213ffe04 	addi	r4,r4,-8
    2a28:	24009726 	beq	r4,r16,2c88 <_malloc_r+0x2f4>
    2a2c:	80800117 	ldw	r2,4(r16)
    2a30:	01bfff04 	movi	r6,-4
    2a34:	014003c4 	movi	r5,15
    2a38:	1184703a 	and	r2,r2,r6
    2a3c:	1447c83a 	sub	r3,r2,r17
    2a40:	28c00716 	blt	r5,r3,2a60 <_malloc_r+0xcc>
    2a44:	1800920e 	bge	r3,zero,2c90 <_malloc_r+0x2fc>
    2a48:	84000317 	ldw	r16,12(r16)
    2a4c:	24008e26 	beq	r4,r16,2c88 <_malloc_r+0x2f4>
    2a50:	80800117 	ldw	r2,4(r16)
    2a54:	1184703a 	and	r2,r2,r6
    2a58:	1447c83a 	sub	r3,r2,r17
    2a5c:	28fff90e 	bge	r5,r3,2a44 <__alt_data_end+0xf8002a44>
    2a60:	3809883a 	mov	r4,r7
    2a64:	01800074 	movhi	r6,1
    2a68:	9c000417 	ldw	r16,16(r19)
    2a6c:	319a2b04 	addi	r6,r6,26796
    2a70:	32000204 	addi	r8,r6,8
    2a74:	82013426 	beq	r16,r8,2f48 <_malloc_r+0x5b4>
    2a78:	80c00117 	ldw	r3,4(r16)
    2a7c:	00bfff04 	movi	r2,-4
    2a80:	188e703a 	and	r7,r3,r2
    2a84:	3c45c83a 	sub	r2,r7,r17
    2a88:	00c003c4 	movi	r3,15
    2a8c:	18811f16 	blt	r3,r2,2f0c <_malloc_r+0x578>
    2a90:	32000515 	stw	r8,20(r6)
    2a94:	32000415 	stw	r8,16(r6)
    2a98:	10007f0e 	bge	r2,zero,2c98 <_malloc_r+0x304>
    2a9c:	00807fc4 	movi	r2,511
    2aa0:	11c0fd36 	bltu	r2,r7,2e98 <_malloc_r+0x504>
    2aa4:	3806d0fa 	srli	r3,r7,3
    2aa8:	01c00044 	movi	r7,1
    2aac:	30800117 	ldw	r2,4(r6)
    2ab0:	19400044 	addi	r5,r3,1
    2ab4:	294b883a 	add	r5,r5,r5
    2ab8:	1807d0ba 	srai	r3,r3,2
    2abc:	294b883a 	add	r5,r5,r5
    2ac0:	294b883a 	add	r5,r5,r5
    2ac4:	298b883a 	add	r5,r5,r6
    2ac8:	38c6983a 	sll	r3,r7,r3
    2acc:	29c00017 	ldw	r7,0(r5)
    2ad0:	2a7ffe04 	addi	r9,r5,-8
    2ad4:	1886b03a 	or	r3,r3,r2
    2ad8:	82400315 	stw	r9,12(r16)
    2adc:	81c00215 	stw	r7,8(r16)
    2ae0:	30c00115 	stw	r3,4(r6)
    2ae4:	2c000015 	stw	r16,0(r5)
    2ae8:	3c000315 	stw	r16,12(r7)
    2aec:	2005d0ba 	srai	r2,r4,2
    2af0:	01400044 	movi	r5,1
    2af4:	288a983a 	sll	r5,r5,r2
    2af8:	19406f36 	bltu	r3,r5,2cb8 <_malloc_r+0x324>
    2afc:	28c4703a 	and	r2,r5,r3
    2b00:	10000a1e 	bne	r2,zero,2b2c <_malloc_r+0x198>
    2b04:	00bfff04 	movi	r2,-4
    2b08:	294b883a 	add	r5,r5,r5
    2b0c:	2088703a 	and	r4,r4,r2
    2b10:	28c4703a 	and	r2,r5,r3
    2b14:	21000104 	addi	r4,r4,4
    2b18:	1000041e 	bne	r2,zero,2b2c <_malloc_r+0x198>
    2b1c:	294b883a 	add	r5,r5,r5
    2b20:	28c4703a 	and	r2,r5,r3
    2b24:	21000104 	addi	r4,r4,4
    2b28:	103ffc26 	beq	r2,zero,2b1c <__alt_data_end+0xf8002b1c>
    2b2c:	02bfff04 	movi	r10,-4
    2b30:	024003c4 	movi	r9,15
    2b34:	21800044 	addi	r6,r4,1
    2b38:	318d883a 	add	r6,r6,r6
    2b3c:	318d883a 	add	r6,r6,r6
    2b40:	318d883a 	add	r6,r6,r6
    2b44:	998d883a 	add	r6,r19,r6
    2b48:	333ffe04 	addi	r12,r6,-8
    2b4c:	2017883a 	mov	r11,r4
    2b50:	31800104 	addi	r6,r6,4
    2b54:	34000017 	ldw	r16,0(r6)
    2b58:	31fffd04 	addi	r7,r6,-12
    2b5c:	81c0041e 	bne	r16,r7,2b70 <_malloc_r+0x1dc>
    2b60:	0000fb06 	br	2f50 <_malloc_r+0x5bc>
    2b64:	1801030e 	bge	r3,zero,2f74 <_malloc_r+0x5e0>
    2b68:	84000317 	ldw	r16,12(r16)
    2b6c:	81c0f826 	beq	r16,r7,2f50 <_malloc_r+0x5bc>
    2b70:	80800117 	ldw	r2,4(r16)
    2b74:	1284703a 	and	r2,r2,r10
    2b78:	1447c83a 	sub	r3,r2,r17
    2b7c:	48fff90e 	bge	r9,r3,2b64 <__alt_data_end+0xf8002b64>
    2b80:	80800317 	ldw	r2,12(r16)
    2b84:	81000217 	ldw	r4,8(r16)
    2b88:	89400054 	ori	r5,r17,1
    2b8c:	81400115 	stw	r5,4(r16)
    2b90:	20800315 	stw	r2,12(r4)
    2b94:	11000215 	stw	r4,8(r2)
    2b98:	8463883a 	add	r17,r16,r17
    2b9c:	9c400515 	stw	r17,20(r19)
    2ba0:	9c400415 	stw	r17,16(r19)
    2ba4:	18800054 	ori	r2,r3,1
    2ba8:	88800115 	stw	r2,4(r17)
    2bac:	8a000315 	stw	r8,12(r17)
    2bb0:	8a000215 	stw	r8,8(r17)
    2bb4:	88e3883a 	add	r17,r17,r3
    2bb8:	88c00015 	stw	r3,0(r17)
    2bbc:	9009883a 	mov	r4,r18
    2bc0:	0012d400 	call	12d40 <__malloc_unlock>
    2bc4:	80800204 	addi	r2,r16,8
    2bc8:	00001b06 	br	2c38 <_malloc_r+0x2a4>
    2bcc:	04400404 	movi	r17,16
    2bd0:	89402536 	bltu	r17,r5,2c68 <_malloc_r+0x2d4>
    2bd4:	0012d1c0 	call	12d1c <__malloc_lock>
    2bd8:	00800184 	movi	r2,6
    2bdc:	01000084 	movi	r4,2
    2be0:	04c00074 	movhi	r19,1
    2be4:	1085883a 	add	r2,r2,r2
    2be8:	9cda2b04 	addi	r19,r19,26796
    2bec:	1085883a 	add	r2,r2,r2
    2bf0:	9885883a 	add	r2,r19,r2
    2bf4:	14000117 	ldw	r16,4(r2)
    2bf8:	10fffe04 	addi	r3,r2,-8
    2bfc:	80c0d926 	beq	r16,r3,2f64 <_malloc_r+0x5d0>
    2c00:	80c00117 	ldw	r3,4(r16)
    2c04:	81000317 	ldw	r4,12(r16)
    2c08:	00bfff04 	movi	r2,-4
    2c0c:	1884703a 	and	r2,r3,r2
    2c10:	81400217 	ldw	r5,8(r16)
    2c14:	8085883a 	add	r2,r16,r2
    2c18:	10c00117 	ldw	r3,4(r2)
    2c1c:	29000315 	stw	r4,12(r5)
    2c20:	21400215 	stw	r5,8(r4)
    2c24:	18c00054 	ori	r3,r3,1
    2c28:	10c00115 	stw	r3,4(r2)
    2c2c:	9009883a 	mov	r4,r18
    2c30:	0012d400 	call	12d40 <__malloc_unlock>
    2c34:	80800204 	addi	r2,r16,8
    2c38:	dfc00a17 	ldw	ra,40(sp)
    2c3c:	df000917 	ldw	fp,36(sp)
    2c40:	ddc00817 	ldw	r23,32(sp)
    2c44:	dd800717 	ldw	r22,28(sp)
    2c48:	dd400617 	ldw	r21,24(sp)
    2c4c:	dd000517 	ldw	r20,20(sp)
    2c50:	dcc00417 	ldw	r19,16(sp)
    2c54:	dc800317 	ldw	r18,12(sp)
    2c58:	dc400217 	ldw	r17,8(sp)
    2c5c:	dc000117 	ldw	r16,4(sp)
    2c60:	dec00b04 	addi	sp,sp,44
    2c64:	f800283a 	ret
    2c68:	00800304 	movi	r2,12
    2c6c:	90800015 	stw	r2,0(r18)
    2c70:	0005883a 	mov	r2,zero
    2c74:	003ff006 	br	2c38 <__alt_data_end+0xf8002c38>
    2c78:	01002004 	movi	r4,128
    2c7c:	02001004 	movi	r8,64
    2c80:	01c00fc4 	movi	r7,63
    2c84:	003f6106 	br	2a0c <__alt_data_end+0xf8002a0c>
    2c88:	4009883a 	mov	r4,r8
    2c8c:	003f7506 	br	2a64 <__alt_data_end+0xf8002a64>
    2c90:	81000317 	ldw	r4,12(r16)
    2c94:	003fde06 	br	2c10 <__alt_data_end+0xf8002c10>
    2c98:	81c5883a 	add	r2,r16,r7
    2c9c:	11400117 	ldw	r5,4(r2)
    2ca0:	9009883a 	mov	r4,r18
    2ca4:	29400054 	ori	r5,r5,1
    2ca8:	11400115 	stw	r5,4(r2)
    2cac:	0012d400 	call	12d40 <__malloc_unlock>
    2cb0:	80800204 	addi	r2,r16,8
    2cb4:	003fe006 	br	2c38 <__alt_data_end+0xf8002c38>
    2cb8:	9c000217 	ldw	r16,8(r19)
    2cbc:	00bfff04 	movi	r2,-4
    2cc0:	85800117 	ldw	r22,4(r16)
    2cc4:	b0ac703a 	and	r22,r22,r2
    2cc8:	b4400336 	bltu	r22,r17,2cd8 <_malloc_r+0x344>
    2ccc:	b445c83a 	sub	r2,r22,r17
    2cd0:	00c003c4 	movi	r3,15
    2cd4:	18805d16 	blt	r3,r2,2e4c <_malloc_r+0x4b8>
    2cd8:	05c000b4 	movhi	r23,2
    2cdc:	008000b4 	movhi	r2,2
    2ce0:	10a74904 	addi	r2,r2,-25308
    2ce4:	bde01804 	addi	r23,r23,-32672
    2ce8:	15400017 	ldw	r21,0(r2)
    2cec:	b8c00017 	ldw	r3,0(r23)
    2cf0:	00bfffc4 	movi	r2,-1
    2cf4:	858d883a 	add	r6,r16,r22
    2cf8:	8d6b883a 	add	r21,r17,r21
    2cfc:	1880ea26 	beq	r3,r2,30a8 <_malloc_r+0x714>
    2d00:	ad4403c4 	addi	r21,r21,4111
    2d04:	00bc0004 	movi	r2,-4096
    2d08:	a8aa703a 	and	r21,r21,r2
    2d0c:	a80b883a 	mov	r5,r21
    2d10:	9009883a 	mov	r4,r18
    2d14:	d9800015 	stw	r6,0(sp)
    2d18:	00036580 	call	3658 <_sbrk_r>
    2d1c:	1029883a 	mov	r20,r2
    2d20:	00bfffc4 	movi	r2,-1
    2d24:	d9800017 	ldw	r6,0(sp)
    2d28:	a080e826 	beq	r20,r2,30cc <_malloc_r+0x738>
    2d2c:	a180a636 	bltu	r20,r6,2fc8 <_malloc_r+0x634>
    2d30:	070000b4 	movhi	fp,2
    2d34:	e7275604 	addi	fp,fp,-25256
    2d38:	e0800017 	ldw	r2,0(fp)
    2d3c:	a887883a 	add	r3,r21,r2
    2d40:	e0c00015 	stw	r3,0(fp)
    2d44:	3500e626 	beq	r6,r20,30e0 <_malloc_r+0x74c>
    2d48:	b9000017 	ldw	r4,0(r23)
    2d4c:	00bfffc4 	movi	r2,-1
    2d50:	2080ee26 	beq	r4,r2,310c <_malloc_r+0x778>
    2d54:	a185c83a 	sub	r2,r20,r6
    2d58:	10c5883a 	add	r2,r2,r3
    2d5c:	e0800015 	stw	r2,0(fp)
    2d60:	a0c001cc 	andi	r3,r20,7
    2d64:	1800bc26 	beq	r3,zero,3058 <_malloc_r+0x6c4>
    2d68:	a0e9c83a 	sub	r20,r20,r3
    2d6c:	00840204 	movi	r2,4104
    2d70:	a5000204 	addi	r20,r20,8
    2d74:	10c7c83a 	sub	r3,r2,r3
    2d78:	a545883a 	add	r2,r20,r21
    2d7c:	1083ffcc 	andi	r2,r2,4095
    2d80:	18abc83a 	sub	r21,r3,r2
    2d84:	a80b883a 	mov	r5,r21
    2d88:	9009883a 	mov	r4,r18
    2d8c:	00036580 	call	3658 <_sbrk_r>
    2d90:	00ffffc4 	movi	r3,-1
    2d94:	10c0e126 	beq	r2,r3,311c <_malloc_r+0x788>
    2d98:	1505c83a 	sub	r2,r2,r20
    2d9c:	1545883a 	add	r2,r2,r21
    2da0:	10800054 	ori	r2,r2,1
    2da4:	e0c00017 	ldw	r3,0(fp)
    2da8:	9d000215 	stw	r20,8(r19)
    2dac:	a0800115 	stw	r2,4(r20)
    2db0:	a8c7883a 	add	r3,r21,r3
    2db4:	e0c00015 	stw	r3,0(fp)
    2db8:	84c00e26 	beq	r16,r19,2df4 <_malloc_r+0x460>
    2dbc:	018003c4 	movi	r6,15
    2dc0:	3580a72e 	bgeu	r6,r22,3060 <_malloc_r+0x6cc>
    2dc4:	81400117 	ldw	r5,4(r16)
    2dc8:	013ffe04 	movi	r4,-8
    2dcc:	b0bffd04 	addi	r2,r22,-12
    2dd0:	1104703a 	and	r2,r2,r4
    2dd4:	2900004c 	andi	r4,r5,1
    2dd8:	2088b03a 	or	r4,r4,r2
    2ddc:	81000115 	stw	r4,4(r16)
    2de0:	01400144 	movi	r5,5
    2de4:	8089883a 	add	r4,r16,r2
    2de8:	21400115 	stw	r5,4(r4)
    2dec:	21400215 	stw	r5,8(r4)
    2df0:	3080cd36 	bltu	r6,r2,3128 <_malloc_r+0x794>
    2df4:	008000b4 	movhi	r2,2
    2df8:	10a74804 	addi	r2,r2,-25312
    2dfc:	11000017 	ldw	r4,0(r2)
    2e00:	20c0012e 	bgeu	r4,r3,2e08 <_malloc_r+0x474>
    2e04:	10c00015 	stw	r3,0(r2)
    2e08:	008000b4 	movhi	r2,2
    2e0c:	10a74704 	addi	r2,r2,-25316
    2e10:	11000017 	ldw	r4,0(r2)
    2e14:	9c000217 	ldw	r16,8(r19)
    2e18:	20c0012e 	bgeu	r4,r3,2e20 <_malloc_r+0x48c>
    2e1c:	10c00015 	stw	r3,0(r2)
    2e20:	80c00117 	ldw	r3,4(r16)
    2e24:	00bfff04 	movi	r2,-4
    2e28:	1886703a 	and	r3,r3,r2
    2e2c:	1c45c83a 	sub	r2,r3,r17
    2e30:	1c400236 	bltu	r3,r17,2e3c <_malloc_r+0x4a8>
    2e34:	00c003c4 	movi	r3,15
    2e38:	18800416 	blt	r3,r2,2e4c <_malloc_r+0x4b8>
    2e3c:	9009883a 	mov	r4,r18
    2e40:	0012d400 	call	12d40 <__malloc_unlock>
    2e44:	0005883a 	mov	r2,zero
    2e48:	003f7b06 	br	2c38 <__alt_data_end+0xf8002c38>
    2e4c:	88c00054 	ori	r3,r17,1
    2e50:	80c00115 	stw	r3,4(r16)
    2e54:	8463883a 	add	r17,r16,r17
    2e58:	10800054 	ori	r2,r2,1
    2e5c:	9c400215 	stw	r17,8(r19)
    2e60:	88800115 	stw	r2,4(r17)
    2e64:	9009883a 	mov	r4,r18
    2e68:	0012d400 	call	12d40 <__malloc_unlock>
    2e6c:	80800204 	addi	r2,r16,8
    2e70:	003f7106 	br	2c38 <__alt_data_end+0xf8002c38>
    2e74:	00c00504 	movi	r3,20
    2e78:	18804a2e 	bgeu	r3,r2,2fa4 <_malloc_r+0x610>
    2e7c:	00c01504 	movi	r3,84
    2e80:	18806e36 	bltu	r3,r2,303c <_malloc_r+0x6a8>
    2e84:	8804d33a 	srli	r2,r17,12
    2e88:	12001bc4 	addi	r8,r2,111
    2e8c:	11c01b84 	addi	r7,r2,110
    2e90:	4209883a 	add	r4,r8,r8
    2e94:	003edd06 	br	2a0c <__alt_data_end+0xf8002a0c>
    2e98:	3804d27a 	srli	r2,r7,9
    2e9c:	00c00104 	movi	r3,4
    2ea0:	1880442e 	bgeu	r3,r2,2fb4 <_malloc_r+0x620>
    2ea4:	00c00504 	movi	r3,20
    2ea8:	18808136 	bltu	r3,r2,30b0 <_malloc_r+0x71c>
    2eac:	11401704 	addi	r5,r2,92
    2eb0:	10c016c4 	addi	r3,r2,91
    2eb4:	294b883a 	add	r5,r5,r5
    2eb8:	294b883a 	add	r5,r5,r5
    2ebc:	294b883a 	add	r5,r5,r5
    2ec0:	994b883a 	add	r5,r19,r5
    2ec4:	28800017 	ldw	r2,0(r5)
    2ec8:	01800074 	movhi	r6,1
    2ecc:	297ffe04 	addi	r5,r5,-8
    2ed0:	319a2b04 	addi	r6,r6,26796
    2ed4:	28806526 	beq	r5,r2,306c <_malloc_r+0x6d8>
    2ed8:	01bfff04 	movi	r6,-4
    2edc:	10c00117 	ldw	r3,4(r2)
    2ee0:	1986703a 	and	r3,r3,r6
    2ee4:	38c0022e 	bgeu	r7,r3,2ef0 <_malloc_r+0x55c>
    2ee8:	10800217 	ldw	r2,8(r2)
    2eec:	28bffb1e 	bne	r5,r2,2edc <__alt_data_end+0xf8002edc>
    2ef0:	11400317 	ldw	r5,12(r2)
    2ef4:	98c00117 	ldw	r3,4(r19)
    2ef8:	81400315 	stw	r5,12(r16)
    2efc:	80800215 	stw	r2,8(r16)
    2f00:	2c000215 	stw	r16,8(r5)
    2f04:	14000315 	stw	r16,12(r2)
    2f08:	003ef806 	br	2aec <__alt_data_end+0xf8002aec>
    2f0c:	88c00054 	ori	r3,r17,1
    2f10:	80c00115 	stw	r3,4(r16)
    2f14:	8463883a 	add	r17,r16,r17
    2f18:	34400515 	stw	r17,20(r6)
    2f1c:	34400415 	stw	r17,16(r6)
    2f20:	10c00054 	ori	r3,r2,1
    2f24:	8a000315 	stw	r8,12(r17)
    2f28:	8a000215 	stw	r8,8(r17)
    2f2c:	88c00115 	stw	r3,4(r17)
    2f30:	88a3883a 	add	r17,r17,r2
    2f34:	88800015 	stw	r2,0(r17)
    2f38:	9009883a 	mov	r4,r18
    2f3c:	0012d400 	call	12d40 <__malloc_unlock>
    2f40:	80800204 	addi	r2,r16,8
    2f44:	003f3c06 	br	2c38 <__alt_data_end+0xf8002c38>
    2f48:	30c00117 	ldw	r3,4(r6)
    2f4c:	003ee706 	br	2aec <__alt_data_end+0xf8002aec>
    2f50:	5ac00044 	addi	r11,r11,1
    2f54:	588000cc 	andi	r2,r11,3
    2f58:	31800204 	addi	r6,r6,8
    2f5c:	103efd1e 	bne	r2,zero,2b54 <__alt_data_end+0xf8002b54>
    2f60:	00002406 	br	2ff4 <_malloc_r+0x660>
    2f64:	14000317 	ldw	r16,12(r2)
    2f68:	143f251e 	bne	r2,r16,2c00 <__alt_data_end+0xf8002c00>
    2f6c:	21000084 	addi	r4,r4,2
    2f70:	003ebc06 	br	2a64 <__alt_data_end+0xf8002a64>
    2f74:	8085883a 	add	r2,r16,r2
    2f78:	10c00117 	ldw	r3,4(r2)
    2f7c:	81000317 	ldw	r4,12(r16)
    2f80:	81400217 	ldw	r5,8(r16)
    2f84:	18c00054 	ori	r3,r3,1
    2f88:	10c00115 	stw	r3,4(r2)
    2f8c:	29000315 	stw	r4,12(r5)
    2f90:	21400215 	stw	r5,8(r4)
    2f94:	9009883a 	mov	r4,r18
    2f98:	0012d400 	call	12d40 <__malloc_unlock>
    2f9c:	80800204 	addi	r2,r16,8
    2fa0:	003f2506 	br	2c38 <__alt_data_end+0xf8002c38>
    2fa4:	12001704 	addi	r8,r2,92
    2fa8:	11c016c4 	addi	r7,r2,91
    2fac:	4209883a 	add	r4,r8,r8
    2fb0:	003e9606 	br	2a0c <__alt_data_end+0xf8002a0c>
    2fb4:	3804d1ba 	srli	r2,r7,6
    2fb8:	11400e44 	addi	r5,r2,57
    2fbc:	10c00e04 	addi	r3,r2,56
    2fc0:	294b883a 	add	r5,r5,r5
    2fc4:	003fbc06 	br	2eb8 <__alt_data_end+0xf8002eb8>
    2fc8:	84ff5926 	beq	r16,r19,2d30 <__alt_data_end+0xf8002d30>
    2fcc:	00800074 	movhi	r2,1
    2fd0:	109a2b04 	addi	r2,r2,26796
    2fd4:	14000217 	ldw	r16,8(r2)
    2fd8:	00bfff04 	movi	r2,-4
    2fdc:	80c00117 	ldw	r3,4(r16)
    2fe0:	1886703a 	and	r3,r3,r2
    2fe4:	003f9106 	br	2e2c <__alt_data_end+0xf8002e2c>
    2fe8:	60800217 	ldw	r2,8(r12)
    2fec:	213fffc4 	addi	r4,r4,-1
    2ff0:	1300651e 	bne	r2,r12,3188 <_malloc_r+0x7f4>
    2ff4:	208000cc 	andi	r2,r4,3
    2ff8:	633ffe04 	addi	r12,r12,-8
    2ffc:	103ffa1e 	bne	r2,zero,2fe8 <__alt_data_end+0xf8002fe8>
    3000:	98800117 	ldw	r2,4(r19)
    3004:	0146303a 	nor	r3,zero,r5
    3008:	1884703a 	and	r2,r3,r2
    300c:	98800115 	stw	r2,4(r19)
    3010:	294b883a 	add	r5,r5,r5
    3014:	117f2836 	bltu	r2,r5,2cb8 <__alt_data_end+0xf8002cb8>
    3018:	283f2726 	beq	r5,zero,2cb8 <__alt_data_end+0xf8002cb8>
    301c:	2886703a 	and	r3,r5,r2
    3020:	5809883a 	mov	r4,r11
    3024:	183ec31e 	bne	r3,zero,2b34 <__alt_data_end+0xf8002b34>
    3028:	294b883a 	add	r5,r5,r5
    302c:	2886703a 	and	r3,r5,r2
    3030:	21000104 	addi	r4,r4,4
    3034:	183ffc26 	beq	r3,zero,3028 <__alt_data_end+0xf8003028>
    3038:	003ebe06 	br	2b34 <__alt_data_end+0xf8002b34>
    303c:	00c05504 	movi	r3,340
    3040:	18801236 	bltu	r3,r2,308c <_malloc_r+0x6f8>
    3044:	8804d3fa 	srli	r2,r17,15
    3048:	12001e04 	addi	r8,r2,120
    304c:	11c01dc4 	addi	r7,r2,119
    3050:	4209883a 	add	r4,r8,r8
    3054:	003e6d06 	br	2a0c <__alt_data_end+0xf8002a0c>
    3058:	00c40004 	movi	r3,4096
    305c:	003f4606 	br	2d78 <__alt_data_end+0xf8002d78>
    3060:	00800044 	movi	r2,1
    3064:	a0800115 	stw	r2,4(r20)
    3068:	003f7406 	br	2e3c <__alt_data_end+0xf8002e3c>
    306c:	1805d0ba 	srai	r2,r3,2
    3070:	01c00044 	movi	r7,1
    3074:	30c00117 	ldw	r3,4(r6)
    3078:	388e983a 	sll	r7,r7,r2
    307c:	2805883a 	mov	r2,r5
    3080:	38c6b03a 	or	r3,r7,r3
    3084:	30c00115 	stw	r3,4(r6)
    3088:	003f9b06 	br	2ef8 <__alt_data_end+0xf8002ef8>
    308c:	00c15504 	movi	r3,1364
    3090:	18801a36 	bltu	r3,r2,30fc <_malloc_r+0x768>
    3094:	8804d4ba 	srli	r2,r17,18
    3098:	12001f44 	addi	r8,r2,125
    309c:	11c01f04 	addi	r7,r2,124
    30a0:	4209883a 	add	r4,r8,r8
    30a4:	003e5906 	br	2a0c <__alt_data_end+0xf8002a0c>
    30a8:	ad400404 	addi	r21,r21,16
    30ac:	003f1706 	br	2d0c <__alt_data_end+0xf8002d0c>
    30b0:	00c01504 	movi	r3,84
    30b4:	18802336 	bltu	r3,r2,3144 <_malloc_r+0x7b0>
    30b8:	3804d33a 	srli	r2,r7,12
    30bc:	11401bc4 	addi	r5,r2,111
    30c0:	10c01b84 	addi	r3,r2,110
    30c4:	294b883a 	add	r5,r5,r5
    30c8:	003f7b06 	br	2eb8 <__alt_data_end+0xf8002eb8>
    30cc:	9c000217 	ldw	r16,8(r19)
    30d0:	00bfff04 	movi	r2,-4
    30d4:	80c00117 	ldw	r3,4(r16)
    30d8:	1886703a 	and	r3,r3,r2
    30dc:	003f5306 	br	2e2c <__alt_data_end+0xf8002e2c>
    30e0:	3083ffcc 	andi	r2,r6,4095
    30e4:	103f181e 	bne	r2,zero,2d48 <__alt_data_end+0xf8002d48>
    30e8:	99000217 	ldw	r4,8(r19)
    30ec:	b545883a 	add	r2,r22,r21
    30f0:	10800054 	ori	r2,r2,1
    30f4:	20800115 	stw	r2,4(r4)
    30f8:	003f3e06 	br	2df4 <__alt_data_end+0xf8002df4>
    30fc:	01003f84 	movi	r4,254
    3100:	02001fc4 	movi	r8,127
    3104:	01c01f84 	movi	r7,126
    3108:	003e4006 	br	2a0c <__alt_data_end+0xf8002a0c>
    310c:	008000b4 	movhi	r2,2
    3110:	10a01804 	addi	r2,r2,-32672
    3114:	15000015 	stw	r20,0(r2)
    3118:	003f1106 	br	2d60 <__alt_data_end+0xf8002d60>
    311c:	00800044 	movi	r2,1
    3120:	002b883a 	mov	r21,zero
    3124:	003f1f06 	br	2da4 <__alt_data_end+0xf8002da4>
    3128:	81400204 	addi	r5,r16,8
    312c:	9009883a 	mov	r4,r18
    3130:	0001d540 	call	1d54 <_free_r>
    3134:	008000b4 	movhi	r2,2
    3138:	10a75604 	addi	r2,r2,-25256
    313c:	10c00017 	ldw	r3,0(r2)
    3140:	003f2c06 	br	2df4 <__alt_data_end+0xf8002df4>
    3144:	00c05504 	movi	r3,340
    3148:	18800536 	bltu	r3,r2,3160 <_malloc_r+0x7cc>
    314c:	3804d3fa 	srli	r2,r7,15
    3150:	11401e04 	addi	r5,r2,120
    3154:	10c01dc4 	addi	r3,r2,119
    3158:	294b883a 	add	r5,r5,r5
    315c:	003f5606 	br	2eb8 <__alt_data_end+0xf8002eb8>
    3160:	00c15504 	movi	r3,1364
    3164:	18800536 	bltu	r3,r2,317c <_malloc_r+0x7e8>
    3168:	3804d4ba 	srli	r2,r7,18
    316c:	11401f44 	addi	r5,r2,125
    3170:	10c01f04 	addi	r3,r2,124
    3174:	294b883a 	add	r5,r5,r5
    3178:	003f4f06 	br	2eb8 <__alt_data_end+0xf8002eb8>
    317c:	01403f84 	movi	r5,254
    3180:	00c01f84 	movi	r3,126
    3184:	003f4c06 	br	2eb8 <__alt_data_end+0xf8002eb8>
    3188:	98800117 	ldw	r2,4(r19)
    318c:	003fa006 	br	3010 <__alt_data_end+0xf8003010>
    3190:	8808d0fa 	srli	r4,r17,3
    3194:	20800044 	addi	r2,r4,1
    3198:	1085883a 	add	r2,r2,r2
    319c:	003e9006 	br	2be0 <__alt_data_end+0xf8002be0>

000031a0 <memset>:
    31a0:	20c000cc 	andi	r3,r4,3
    31a4:	2005883a 	mov	r2,r4
    31a8:	18004426 	beq	r3,zero,32bc <memset+0x11c>
    31ac:	31ffffc4 	addi	r7,r6,-1
    31b0:	30004026 	beq	r6,zero,32b4 <memset+0x114>
    31b4:	2813883a 	mov	r9,r5
    31b8:	200d883a 	mov	r6,r4
    31bc:	2007883a 	mov	r3,r4
    31c0:	00000406 	br	31d4 <memset+0x34>
    31c4:	3a3fffc4 	addi	r8,r7,-1
    31c8:	31800044 	addi	r6,r6,1
    31cc:	38003926 	beq	r7,zero,32b4 <memset+0x114>
    31d0:	400f883a 	mov	r7,r8
    31d4:	18c00044 	addi	r3,r3,1
    31d8:	32400005 	stb	r9,0(r6)
    31dc:	1a0000cc 	andi	r8,r3,3
    31e0:	403ff81e 	bne	r8,zero,31c4 <__alt_data_end+0xf80031c4>
    31e4:	010000c4 	movi	r4,3
    31e8:	21c02d2e 	bgeu	r4,r7,32a0 <memset+0x100>
    31ec:	29003fcc 	andi	r4,r5,255
    31f0:	200c923a 	slli	r6,r4,8
    31f4:	3108b03a 	or	r4,r6,r4
    31f8:	200c943a 	slli	r6,r4,16
    31fc:	218cb03a 	or	r6,r4,r6
    3200:	010003c4 	movi	r4,15
    3204:	21c0182e 	bgeu	r4,r7,3268 <memset+0xc8>
    3208:	3b3ffc04 	addi	r12,r7,-16
    320c:	6018d13a 	srli	r12,r12,4
    3210:	1a000104 	addi	r8,r3,4
    3214:	1ac00204 	addi	r11,r3,8
    3218:	6008913a 	slli	r4,r12,4
    321c:	1a800304 	addi	r10,r3,12
    3220:	1813883a 	mov	r9,r3
    3224:	21000504 	addi	r4,r4,20
    3228:	1909883a 	add	r4,r3,r4
    322c:	49800015 	stw	r6,0(r9)
    3230:	41800015 	stw	r6,0(r8)
    3234:	59800015 	stw	r6,0(r11)
    3238:	51800015 	stw	r6,0(r10)
    323c:	42000404 	addi	r8,r8,16
    3240:	4a400404 	addi	r9,r9,16
    3244:	5ac00404 	addi	r11,r11,16
    3248:	52800404 	addi	r10,r10,16
    324c:	413ff71e 	bne	r8,r4,322c <__alt_data_end+0xf800322c>
    3250:	63000044 	addi	r12,r12,1
    3254:	6018913a 	slli	r12,r12,4
    3258:	39c003cc 	andi	r7,r7,15
    325c:	010000c4 	movi	r4,3
    3260:	1b07883a 	add	r3,r3,r12
    3264:	21c00e2e 	bgeu	r4,r7,32a0 <memset+0x100>
    3268:	1813883a 	mov	r9,r3
    326c:	3811883a 	mov	r8,r7
    3270:	010000c4 	movi	r4,3
    3274:	49800015 	stw	r6,0(r9)
    3278:	423fff04 	addi	r8,r8,-4
    327c:	4a400104 	addi	r9,r9,4
    3280:	223ffc36 	bltu	r4,r8,3274 <__alt_data_end+0xf8003274>
    3284:	393fff04 	addi	r4,r7,-4
    3288:	2008d0ba 	srli	r4,r4,2
    328c:	39c000cc 	andi	r7,r7,3
    3290:	21000044 	addi	r4,r4,1
    3294:	2109883a 	add	r4,r4,r4
    3298:	2109883a 	add	r4,r4,r4
    329c:	1907883a 	add	r3,r3,r4
    32a0:	38000526 	beq	r7,zero,32b8 <memset+0x118>
    32a4:	19cf883a 	add	r7,r3,r7
    32a8:	19400005 	stb	r5,0(r3)
    32ac:	18c00044 	addi	r3,r3,1
    32b0:	38fffd1e 	bne	r7,r3,32a8 <__alt_data_end+0xf80032a8>
    32b4:	f800283a 	ret
    32b8:	f800283a 	ret
    32bc:	2007883a 	mov	r3,r4
    32c0:	300f883a 	mov	r7,r6
    32c4:	003fc706 	br	31e4 <__alt_data_end+0xf80031e4>

000032c8 <_open_r>:
    32c8:	defffd04 	addi	sp,sp,-12
    32cc:	2805883a 	mov	r2,r5
    32d0:	dc000015 	stw	r16,0(sp)
    32d4:	040000b4 	movhi	r16,2
    32d8:	dc400115 	stw	r17,4(sp)
    32dc:	300b883a 	mov	r5,r6
    32e0:	84274604 	addi	r16,r16,-25320
    32e4:	2023883a 	mov	r17,r4
    32e8:	380d883a 	mov	r6,r7
    32ec:	1009883a 	mov	r4,r2
    32f0:	dfc00215 	stw	ra,8(sp)
    32f4:	80000015 	stw	zero,0(r16)
    32f8:	0012e8c0 	call	12e8c <open>
    32fc:	00ffffc4 	movi	r3,-1
    3300:	10c00526 	beq	r2,r3,3318 <_open_r+0x50>
    3304:	dfc00217 	ldw	ra,8(sp)
    3308:	dc400117 	ldw	r17,4(sp)
    330c:	dc000017 	ldw	r16,0(sp)
    3310:	dec00304 	addi	sp,sp,12
    3314:	f800283a 	ret
    3318:	80c00017 	ldw	r3,0(r16)
    331c:	183ff926 	beq	r3,zero,3304 <__alt_data_end+0xf8003304>
    3320:	88c00015 	stw	r3,0(r17)
    3324:	003ff706 	br	3304 <__alt_data_end+0xf8003304>

00003328 <_printf_r>:
    3328:	defffd04 	addi	sp,sp,-12
    332c:	2805883a 	mov	r2,r5
    3330:	dfc00015 	stw	ra,0(sp)
    3334:	d9800115 	stw	r6,4(sp)
    3338:	d9c00215 	stw	r7,8(sp)
    333c:	21400217 	ldw	r5,8(r4)
    3340:	d9c00104 	addi	r7,sp,4
    3344:	100d883a 	mov	r6,r2
    3348:	0005c000 	call	5c00 <___vfprintf_internal_r>
    334c:	dfc00017 	ldw	ra,0(sp)
    3350:	dec00304 	addi	sp,sp,12
    3354:	f800283a 	ret

00003358 <printf>:
    3358:	defffc04 	addi	sp,sp,-16
    335c:	dfc00015 	stw	ra,0(sp)
    3360:	d9400115 	stw	r5,4(sp)
    3364:	d9800215 	stw	r6,8(sp)
    3368:	d9c00315 	stw	r7,12(sp)
    336c:	008000b4 	movhi	r2,2
    3370:	10a01704 	addi	r2,r2,-32676
    3374:	10800017 	ldw	r2,0(r2)
    3378:	200b883a 	mov	r5,r4
    337c:	d9800104 	addi	r6,sp,4
    3380:	11000217 	ldw	r4,8(r2)
    3384:	0007edc0 	call	7edc <__vfprintf_internal>
    3388:	dfc00017 	ldw	ra,0(sp)
    338c:	dec00404 	addi	sp,sp,16
    3390:	f800283a 	ret

00003394 <_puts_r>:
    3394:	defff604 	addi	sp,sp,-40
    3398:	dc000715 	stw	r16,28(sp)
    339c:	2021883a 	mov	r16,r4
    33a0:	2809883a 	mov	r4,r5
    33a4:	dc400815 	stw	r17,32(sp)
    33a8:	dfc00915 	stw	ra,36(sp)
    33ac:	2823883a 	mov	r17,r5
    33b0:	00038ac0 	call	38ac <strlen>
    33b4:	10c00044 	addi	r3,r2,1
    33b8:	d8800115 	stw	r2,4(sp)
    33bc:	00800074 	movhi	r2,1
    33c0:	10979c04 	addi	r2,r2,24176
    33c4:	d8800215 	stw	r2,8(sp)
    33c8:	00800044 	movi	r2,1
    33cc:	d8800315 	stw	r2,12(sp)
    33d0:	00800084 	movi	r2,2
    33d4:	dc400015 	stw	r17,0(sp)
    33d8:	d8c00615 	stw	r3,24(sp)
    33dc:	dec00415 	stw	sp,16(sp)
    33e0:	d8800515 	stw	r2,20(sp)
    33e4:	80000226 	beq	r16,zero,33f0 <_puts_r+0x5c>
    33e8:	80800e17 	ldw	r2,56(r16)
    33ec:	10001426 	beq	r2,zero,3440 <_puts_r+0xac>
    33f0:	81400217 	ldw	r5,8(r16)
    33f4:	2880030b 	ldhu	r2,12(r5)
    33f8:	10c8000c 	andi	r3,r2,8192
    33fc:	1800061e 	bne	r3,zero,3418 <_puts_r+0x84>
    3400:	29001917 	ldw	r4,100(r5)
    3404:	00f7ffc4 	movi	r3,-8193
    3408:	10880014 	ori	r2,r2,8192
    340c:	20c6703a 	and	r3,r4,r3
    3410:	2880030d 	sth	r2,12(r5)
    3414:	28c01915 	stw	r3,100(r5)
    3418:	d9800404 	addi	r6,sp,16
    341c:	8009883a 	mov	r4,r16
    3420:	0009c1c0 	call	9c1c <__sfvwrite_r>
    3424:	1000091e 	bne	r2,zero,344c <_puts_r+0xb8>
    3428:	00800284 	movi	r2,10
    342c:	dfc00917 	ldw	ra,36(sp)
    3430:	dc400817 	ldw	r17,32(sp)
    3434:	dc000717 	ldw	r16,28(sp)
    3438:	dec00a04 	addi	sp,sp,40
    343c:	f800283a 	ret
    3440:	8009883a 	mov	r4,r16
    3444:	0001a880 	call	1a88 <__sinit>
    3448:	003fe906 	br	33f0 <__alt_data_end+0xf80033f0>
    344c:	00bfffc4 	movi	r2,-1
    3450:	003ff606 	br	342c <__alt_data_end+0xf800342c>

00003454 <puts>:
    3454:	008000b4 	movhi	r2,2
    3458:	10a01704 	addi	r2,r2,-32676
    345c:	200b883a 	mov	r5,r4
    3460:	11000017 	ldw	r4,0(r2)
    3464:	00033941 	jmpi	3394 <_puts_r>

00003468 <lflush>:
    3468:	2080030b 	ldhu	r2,12(r4)
    346c:	00c00244 	movi	r3,9
    3470:	1080024c 	andi	r2,r2,9
    3474:	10c00226 	beq	r2,r3,3480 <lflush+0x18>
    3478:	0005883a 	mov	r2,zero
    347c:	f800283a 	ret
    3480:	00016f81 	jmpi	16f8 <fflush>

00003484 <__srefill_r>:
    3484:	defffc04 	addi	sp,sp,-16
    3488:	dc400115 	stw	r17,4(sp)
    348c:	dc000015 	stw	r16,0(sp)
    3490:	dfc00315 	stw	ra,12(sp)
    3494:	dc800215 	stw	r18,8(sp)
    3498:	2023883a 	mov	r17,r4
    349c:	2821883a 	mov	r16,r5
    34a0:	20000226 	beq	r4,zero,34ac <__srefill_r+0x28>
    34a4:	20800e17 	ldw	r2,56(r4)
    34a8:	10003c26 	beq	r2,zero,359c <__srefill_r+0x118>
    34ac:	80c0030b 	ldhu	r3,12(r16)
    34b0:	1908000c 	andi	r4,r3,8192
    34b4:	1805883a 	mov	r2,r3
    34b8:	2000071e 	bne	r4,zero,34d8 <__srefill_r+0x54>
    34bc:	81001917 	ldw	r4,100(r16)
    34c0:	18880014 	ori	r2,r3,8192
    34c4:	00f7ffc4 	movi	r3,-8193
    34c8:	20c8703a 	and	r4,r4,r3
    34cc:	8080030d 	sth	r2,12(r16)
    34d0:	1007883a 	mov	r3,r2
    34d4:	81001915 	stw	r4,100(r16)
    34d8:	80000115 	stw	zero,4(r16)
    34dc:	1100080c 	andi	r4,r2,32
    34e0:	2000571e 	bne	r4,zero,3640 <__srefill_r+0x1bc>
    34e4:	1100010c 	andi	r4,r2,4
    34e8:	20001f26 	beq	r4,zero,3568 <__srefill_r+0xe4>
    34ec:	81400c17 	ldw	r5,48(r16)
    34f0:	28000826 	beq	r5,zero,3514 <__srefill_r+0x90>
    34f4:	80801004 	addi	r2,r16,64
    34f8:	28800226 	beq	r5,r2,3504 <__srefill_r+0x80>
    34fc:	8809883a 	mov	r4,r17
    3500:	0001d540 	call	1d54 <_free_r>
    3504:	80800f17 	ldw	r2,60(r16)
    3508:	80000c15 	stw	zero,48(r16)
    350c:	80800115 	stw	r2,4(r16)
    3510:	1000391e 	bne	r2,zero,35f8 <__srefill_r+0x174>
    3514:	80800417 	ldw	r2,16(r16)
    3518:	10004b26 	beq	r2,zero,3648 <__srefill_r+0x1c4>
    351c:	8480030b 	ldhu	r18,12(r16)
    3520:	908000cc 	andi	r2,r18,3
    3524:	10001f1e 	bne	r2,zero,35a4 <__srefill_r+0x120>
    3528:	81800417 	ldw	r6,16(r16)
    352c:	80800817 	ldw	r2,32(r16)
    3530:	81c00517 	ldw	r7,20(r16)
    3534:	81400717 	ldw	r5,28(r16)
    3538:	81800015 	stw	r6,0(r16)
    353c:	8809883a 	mov	r4,r17
    3540:	103ee83a 	callr	r2
    3544:	80800115 	stw	r2,4(r16)
    3548:	00800e0e 	bge	zero,r2,3584 <__srefill_r+0x100>
    354c:	0005883a 	mov	r2,zero
    3550:	dfc00317 	ldw	ra,12(sp)
    3554:	dc800217 	ldw	r18,8(sp)
    3558:	dc400117 	ldw	r17,4(sp)
    355c:	dc000017 	ldw	r16,0(sp)
    3560:	dec00404 	addi	sp,sp,16
    3564:	f800283a 	ret
    3568:	1100040c 	andi	r4,r2,16
    356c:	20003026 	beq	r4,zero,3630 <__srefill_r+0x1ac>
    3570:	1080020c 	andi	r2,r2,8
    3574:	1000241e 	bne	r2,zero,3608 <__srefill_r+0x184>
    3578:	18c00114 	ori	r3,r3,4
    357c:	80c0030d 	sth	r3,12(r16)
    3580:	003fe406 	br	3514 <__alt_data_end+0xf8003514>
    3584:	80c0030b 	ldhu	r3,12(r16)
    3588:	1000161e 	bne	r2,zero,35e4 <__srefill_r+0x160>
    358c:	18c00814 	ori	r3,r3,32
    3590:	00bfffc4 	movi	r2,-1
    3594:	80c0030d 	sth	r3,12(r16)
    3598:	003fed06 	br	3550 <__alt_data_end+0xf8003550>
    359c:	0001a880 	call	1a88 <__sinit>
    35a0:	003fc206 	br	34ac <__alt_data_end+0xf80034ac>
    35a4:	008000b4 	movhi	r2,2
    35a8:	10a01604 	addi	r2,r2,-32680
    35ac:	11000017 	ldw	r4,0(r2)
    35b0:	01400034 	movhi	r5,0
    35b4:	00800044 	movi	r2,1
    35b8:	294d1a04 	addi	r5,r5,13416
    35bc:	8080030d 	sth	r2,12(r16)
    35c0:	00025400 	call	2540 <_fwalk>
    35c4:	00800244 	movi	r2,9
    35c8:	8480030d 	sth	r18,12(r16)
    35cc:	9480024c 	andi	r18,r18,9
    35d0:	90bfd51e 	bne	r18,r2,3528 <__alt_data_end+0xf8003528>
    35d4:	800b883a 	mov	r5,r16
    35d8:	8809883a 	mov	r4,r17
    35dc:	00014800 	call	1480 <__sflush_r>
    35e0:	003fd106 	br	3528 <__alt_data_end+0xf8003528>
    35e4:	18c01014 	ori	r3,r3,64
    35e8:	80000115 	stw	zero,4(r16)
    35ec:	00bfffc4 	movi	r2,-1
    35f0:	80c0030d 	sth	r3,12(r16)
    35f4:	003fd606 	br	3550 <__alt_data_end+0xf8003550>
    35f8:	80c00e17 	ldw	r3,56(r16)
    35fc:	0005883a 	mov	r2,zero
    3600:	80c00015 	stw	r3,0(r16)
    3604:	003fd206 	br	3550 <__alt_data_end+0xf8003550>
    3608:	800b883a 	mov	r5,r16
    360c:	8809883a 	mov	r4,r17
    3610:	000169c0 	call	169c <_fflush_r>
    3614:	10000a1e 	bne	r2,zero,3640 <__srefill_r+0x1bc>
    3618:	8080030b 	ldhu	r2,12(r16)
    361c:	00fffdc4 	movi	r3,-9
    3620:	80000215 	stw	zero,8(r16)
    3624:	1886703a 	and	r3,r3,r2
    3628:	80000615 	stw	zero,24(r16)
    362c:	003fd206 	br	3578 <__alt_data_end+0xf8003578>
    3630:	00800244 	movi	r2,9
    3634:	88800015 	stw	r2,0(r17)
    3638:	18c01014 	ori	r3,r3,64
    363c:	80c0030d 	sth	r3,12(r16)
    3640:	00bfffc4 	movi	r2,-1
    3644:	003fc206 	br	3550 <__alt_data_end+0xf8003550>
    3648:	800b883a 	mov	r5,r16
    364c:	8809883a 	mov	r4,r17
    3650:	00027d80 	call	27d8 <__smakebuf_r>
    3654:	003fb106 	br	351c <__alt_data_end+0xf800351c>

00003658 <_sbrk_r>:
    3658:	defffd04 	addi	sp,sp,-12
    365c:	dc000015 	stw	r16,0(sp)
    3660:	040000b4 	movhi	r16,2
    3664:	dc400115 	stw	r17,4(sp)
    3668:	84274604 	addi	r16,r16,-25320
    366c:	2023883a 	mov	r17,r4
    3670:	2809883a 	mov	r4,r5
    3674:	dfc00215 	stw	ra,8(sp)
    3678:	80000015 	stw	zero,0(r16)
    367c:	00131ac0 	call	131ac <sbrk>
    3680:	00ffffc4 	movi	r3,-1
    3684:	10c00526 	beq	r2,r3,369c <_sbrk_r+0x44>
    3688:	dfc00217 	ldw	ra,8(sp)
    368c:	dc400117 	ldw	r17,4(sp)
    3690:	dc000017 	ldw	r16,0(sp)
    3694:	dec00304 	addi	sp,sp,12
    3698:	f800283a 	ret
    369c:	80c00017 	ldw	r3,0(r16)
    36a0:	183ff926 	beq	r3,zero,3688 <__alt_data_end+0xf8003688>
    36a4:	88c00015 	stw	r3,0(r17)
    36a8:	003ff706 	br	3688 <__alt_data_end+0xf8003688>

000036ac <_sprintf_r>:
    36ac:	deffe404 	addi	sp,sp,-112
    36b0:	2807883a 	mov	r3,r5
    36b4:	dfc01a15 	stw	ra,104(sp)
    36b8:	d9c01b15 	stw	r7,108(sp)
    36bc:	00a00034 	movhi	r2,32768
    36c0:	10bfffc4 	addi	r2,r2,-1
    36c4:	02008204 	movi	r8,520
    36c8:	d8800215 	stw	r2,8(sp)
    36cc:	d8800515 	stw	r2,20(sp)
    36d0:	d9c01b04 	addi	r7,sp,108
    36d4:	d80b883a 	mov	r5,sp
    36d8:	00bfffc4 	movi	r2,-1
    36dc:	d8c00015 	stw	r3,0(sp)
    36e0:	d8c00415 	stw	r3,16(sp)
    36e4:	da00030d 	sth	r8,12(sp)
    36e8:	d880038d 	sth	r2,14(sp)
    36ec:	00039440 	call	3944 <___svfprintf_internal_r>
    36f0:	d8c00017 	ldw	r3,0(sp)
    36f4:	18000005 	stb	zero,0(r3)
    36f8:	dfc01a17 	ldw	ra,104(sp)
    36fc:	dec01c04 	addi	sp,sp,112
    3700:	f800283a 	ret

00003704 <sprintf>:
    3704:	deffe304 	addi	sp,sp,-116
    3708:	2007883a 	mov	r3,r4
    370c:	dfc01a15 	stw	ra,104(sp)
    3710:	d9801b15 	stw	r6,108(sp)
    3714:	d9c01c15 	stw	r7,112(sp)
    3718:	010000b4 	movhi	r4,2
    371c:	21201704 	addi	r4,r4,-32676
    3720:	21000017 	ldw	r4,0(r4)
    3724:	00a00034 	movhi	r2,32768
    3728:	10bfffc4 	addi	r2,r2,-1
    372c:	280d883a 	mov	r6,r5
    3730:	02008204 	movi	r8,520
    3734:	d8800215 	stw	r2,8(sp)
    3738:	d8800515 	stw	r2,20(sp)
    373c:	d9c01b04 	addi	r7,sp,108
    3740:	d80b883a 	mov	r5,sp
    3744:	00bfffc4 	movi	r2,-1
    3748:	d8c00015 	stw	r3,0(sp)
    374c:	d8c00415 	stw	r3,16(sp)
    3750:	da00030d 	sth	r8,12(sp)
    3754:	d880038d 	sth	r2,14(sp)
    3758:	00039440 	call	3944 <___svfprintf_internal_r>
    375c:	d8c00017 	ldw	r3,0(sp)
    3760:	18000005 	stb	zero,0(r3)
    3764:	dfc01a17 	ldw	ra,104(sp)
    3768:	dec01d04 	addi	sp,sp,116
    376c:	f800283a 	ret

00003770 <__sread>:
    3770:	defffe04 	addi	sp,sp,-8
    3774:	dc000015 	stw	r16,0(sp)
    3778:	2821883a 	mov	r16,r5
    377c:	2940038f 	ldh	r5,14(r5)
    3780:	dfc00115 	stw	ra,4(sp)
    3784:	000b6b40 	call	b6b4 <_read_r>
    3788:	10000716 	blt	r2,zero,37a8 <__sread+0x38>
    378c:	80c01417 	ldw	r3,80(r16)
    3790:	1887883a 	add	r3,r3,r2
    3794:	80c01415 	stw	r3,80(r16)
    3798:	dfc00117 	ldw	ra,4(sp)
    379c:	dc000017 	ldw	r16,0(sp)
    37a0:	dec00204 	addi	sp,sp,8
    37a4:	f800283a 	ret
    37a8:	80c0030b 	ldhu	r3,12(r16)
    37ac:	18fbffcc 	andi	r3,r3,61439
    37b0:	80c0030d 	sth	r3,12(r16)
    37b4:	dfc00117 	ldw	ra,4(sp)
    37b8:	dc000017 	ldw	r16,0(sp)
    37bc:	dec00204 	addi	sp,sp,8
    37c0:	f800283a 	ret

000037c4 <__seofread>:
    37c4:	0005883a 	mov	r2,zero
    37c8:	f800283a 	ret

000037cc <__swrite>:
    37cc:	2880030b 	ldhu	r2,12(r5)
    37d0:	defffb04 	addi	sp,sp,-20
    37d4:	dcc00315 	stw	r19,12(sp)
    37d8:	dc800215 	stw	r18,8(sp)
    37dc:	dc400115 	stw	r17,4(sp)
    37e0:	dc000015 	stw	r16,0(sp)
    37e4:	dfc00415 	stw	ra,16(sp)
    37e8:	10c0400c 	andi	r3,r2,256
    37ec:	2821883a 	mov	r16,r5
    37f0:	2023883a 	mov	r17,r4
    37f4:	3025883a 	mov	r18,r6
    37f8:	3827883a 	mov	r19,r7
    37fc:	18000526 	beq	r3,zero,3814 <__swrite+0x48>
    3800:	2940038f 	ldh	r5,14(r5)
    3804:	01c00084 	movi	r7,2
    3808:	000d883a 	mov	r6,zero
    380c:	000a2140 	call	a214 <_lseek_r>
    3810:	8080030b 	ldhu	r2,12(r16)
    3814:	8140038f 	ldh	r5,14(r16)
    3818:	10bbffcc 	andi	r2,r2,61439
    381c:	980f883a 	mov	r7,r19
    3820:	900d883a 	mov	r6,r18
    3824:	8809883a 	mov	r4,r17
    3828:	8080030d 	sth	r2,12(r16)
    382c:	dfc00417 	ldw	ra,16(sp)
    3830:	dcc00317 	ldw	r19,12(sp)
    3834:	dc800217 	ldw	r18,8(sp)
    3838:	dc400117 	ldw	r17,4(sp)
    383c:	dc000017 	ldw	r16,0(sp)
    3840:	dec00504 	addi	sp,sp,20
    3844:	0007fb41 	jmpi	7fb4 <_write_r>

00003848 <__sseek>:
    3848:	defffe04 	addi	sp,sp,-8
    384c:	dc000015 	stw	r16,0(sp)
    3850:	2821883a 	mov	r16,r5
    3854:	2940038f 	ldh	r5,14(r5)
    3858:	dfc00115 	stw	ra,4(sp)
    385c:	000a2140 	call	a214 <_lseek_r>
    3860:	00ffffc4 	movi	r3,-1
    3864:	10c00826 	beq	r2,r3,3888 <__sseek+0x40>
    3868:	80c0030b 	ldhu	r3,12(r16)
    386c:	80801415 	stw	r2,80(r16)
    3870:	18c40014 	ori	r3,r3,4096
    3874:	80c0030d 	sth	r3,12(r16)
    3878:	dfc00117 	ldw	ra,4(sp)
    387c:	dc000017 	ldw	r16,0(sp)
    3880:	dec00204 	addi	sp,sp,8
    3884:	f800283a 	ret
    3888:	80c0030b 	ldhu	r3,12(r16)
    388c:	18fbffcc 	andi	r3,r3,61439
    3890:	80c0030d 	sth	r3,12(r16)
    3894:	dfc00117 	ldw	ra,4(sp)
    3898:	dc000017 	ldw	r16,0(sp)
    389c:	dec00204 	addi	sp,sp,8
    38a0:	f800283a 	ret

000038a4 <__sclose>:
    38a4:	2940038f 	ldh	r5,14(r5)
    38a8:	00081681 	jmpi	8168 <_close_r>

000038ac <strlen>:
    38ac:	208000cc 	andi	r2,r4,3
    38b0:	10002026 	beq	r2,zero,3934 <strlen+0x88>
    38b4:	20800007 	ldb	r2,0(r4)
    38b8:	10002026 	beq	r2,zero,393c <strlen+0x90>
    38bc:	2005883a 	mov	r2,r4
    38c0:	00000206 	br	38cc <strlen+0x20>
    38c4:	10c00007 	ldb	r3,0(r2)
    38c8:	18001826 	beq	r3,zero,392c <strlen+0x80>
    38cc:	10800044 	addi	r2,r2,1
    38d0:	10c000cc 	andi	r3,r2,3
    38d4:	183ffb1e 	bne	r3,zero,38c4 <__alt_data_end+0xf80038c4>
    38d8:	10c00017 	ldw	r3,0(r2)
    38dc:	01ffbff4 	movhi	r7,65279
    38e0:	39ffbfc4 	addi	r7,r7,-257
    38e4:	00ca303a 	nor	r5,zero,r3
    38e8:	01a02074 	movhi	r6,32897
    38ec:	19c7883a 	add	r3,r3,r7
    38f0:	31a02004 	addi	r6,r6,-32640
    38f4:	1946703a 	and	r3,r3,r5
    38f8:	1986703a 	and	r3,r3,r6
    38fc:	1800091e 	bne	r3,zero,3924 <strlen+0x78>
    3900:	10800104 	addi	r2,r2,4
    3904:	10c00017 	ldw	r3,0(r2)
    3908:	19cb883a 	add	r5,r3,r7
    390c:	00c6303a 	nor	r3,zero,r3
    3910:	28c6703a 	and	r3,r5,r3
    3914:	1986703a 	and	r3,r3,r6
    3918:	183ff926 	beq	r3,zero,3900 <__alt_data_end+0xf8003900>
    391c:	00000106 	br	3924 <strlen+0x78>
    3920:	10800044 	addi	r2,r2,1
    3924:	10c00007 	ldb	r3,0(r2)
    3928:	183ffd1e 	bne	r3,zero,3920 <__alt_data_end+0xf8003920>
    392c:	1105c83a 	sub	r2,r2,r4
    3930:	f800283a 	ret
    3934:	2005883a 	mov	r2,r4
    3938:	003fe706 	br	38d8 <__alt_data_end+0xf80038d8>
    393c:	0005883a 	mov	r2,zero
    3940:	f800283a 	ret

00003944 <___svfprintf_internal_r>:
    3944:	deffb704 	addi	sp,sp,-292
    3948:	dfc04815 	stw	ra,288(sp)
    394c:	ddc04615 	stw	r23,280(sp)
    3950:	d9402d15 	stw	r5,180(sp)
    3954:	d9003915 	stw	r4,228(sp)
    3958:	302f883a 	mov	r23,r6
    395c:	d9c02e15 	stw	r7,184(sp)
    3960:	df004715 	stw	fp,284(sp)
    3964:	dd804515 	stw	r22,276(sp)
    3968:	dd404415 	stw	r21,272(sp)
    396c:	dd004315 	stw	r20,268(sp)
    3970:	dcc04215 	stw	r19,264(sp)
    3974:	dc804115 	stw	r18,260(sp)
    3978:	dc404015 	stw	r17,256(sp)
    397c:	dc003f15 	stw	r16,252(sp)
    3980:	000a1e40 	call	a1e4 <_localeconv_r>
    3984:	10800017 	ldw	r2,0(r2)
    3988:	1009883a 	mov	r4,r2
    398c:	d8803415 	stw	r2,208(sp)
    3990:	00038ac0 	call	38ac <strlen>
    3994:	d8c02d17 	ldw	r3,180(sp)
    3998:	d8803815 	stw	r2,224(sp)
    399c:	1880030b 	ldhu	r2,12(r3)
    39a0:	1080200c 	andi	r2,r2,128
    39a4:	10000226 	beq	r2,zero,39b0 <___svfprintf_internal_r+0x6c>
    39a8:	18800417 	ldw	r2,16(r3)
    39ac:	1006b126 	beq	r2,zero,5474 <___svfprintf_internal_r+0x1b30>
    39b0:	dcc03917 	ldw	r19,228(sp)
    39b4:	d8c00404 	addi	r3,sp,16
    39b8:	05400074 	movhi	r21,1
    39bc:	d9001e04 	addi	r4,sp,120
    39c0:	ad57ad84 	addi	r21,r21,24246
    39c4:	d8c01e15 	stw	r3,120(sp)
    39c8:	d8002015 	stw	zero,128(sp)
    39cc:	d8001f15 	stw	zero,124(sp)
    39d0:	d8003315 	stw	zero,204(sp)
    39d4:	d8003615 	stw	zero,216(sp)
    39d8:	d8003715 	stw	zero,220(sp)
    39dc:	1811883a 	mov	r8,r3
    39e0:	d8003a15 	stw	zero,232(sp)
    39e4:	d8003b15 	stw	zero,236(sp)
    39e8:	d8002f15 	stw	zero,188(sp)
    39ec:	d9002815 	stw	r4,160(sp)
    39f0:	b8800007 	ldb	r2,0(r23)
    39f4:	10027726 	beq	r2,zero,43d4 <___svfprintf_internal_r+0xa90>
    39f8:	00c00944 	movi	r3,37
    39fc:	b823883a 	mov	r17,r23
    3a00:	10c0021e 	bne	r2,r3,3a0c <___svfprintf_internal_r+0xc8>
    3a04:	00001406 	br	3a58 <___svfprintf_internal_r+0x114>
    3a08:	10c00326 	beq	r2,r3,3a18 <___svfprintf_internal_r+0xd4>
    3a0c:	8c400044 	addi	r17,r17,1
    3a10:	88800007 	ldb	r2,0(r17)
    3a14:	103ffc1e 	bne	r2,zero,3a08 <__alt_data_end+0xf8003a08>
    3a18:	8de1c83a 	sub	r16,r17,r23
    3a1c:	80000e26 	beq	r16,zero,3a58 <___svfprintf_internal_r+0x114>
    3a20:	d8c02017 	ldw	r3,128(sp)
    3a24:	d8801f17 	ldw	r2,124(sp)
    3a28:	45c00015 	stw	r23,0(r8)
    3a2c:	1c07883a 	add	r3,r3,r16
    3a30:	10800044 	addi	r2,r2,1
    3a34:	d8c02015 	stw	r3,128(sp)
    3a38:	44000115 	stw	r16,4(r8)
    3a3c:	d8801f15 	stw	r2,124(sp)
    3a40:	00c001c4 	movi	r3,7
    3a44:	18809916 	blt	r3,r2,3cac <___svfprintf_internal_r+0x368>
    3a48:	42000204 	addi	r8,r8,8
    3a4c:	d9402f17 	ldw	r5,188(sp)
    3a50:	2c0b883a 	add	r5,r5,r16
    3a54:	d9402f15 	stw	r5,188(sp)
    3a58:	88800007 	ldb	r2,0(r17)
    3a5c:	10009a26 	beq	r2,zero,3cc8 <___svfprintf_internal_r+0x384>
    3a60:	8dc00044 	addi	r23,r17,1
    3a64:	8c400047 	ldb	r17,1(r17)
    3a68:	0021883a 	mov	r16,zero
    3a6c:	00bfffc4 	movi	r2,-1
    3a70:	0025883a 	mov	r18,zero
    3a74:	dc002905 	stb	r16,164(sp)
    3a78:	d8002785 	stb	zero,158(sp)
    3a7c:	d8002b05 	stb	zero,172(sp)
    3a80:	d8802a15 	stw	r2,168(sp)
    3a84:	d8003115 	stw	zero,196(sp)
    3a88:	05001604 	movi	r20,88
    3a8c:	05800244 	movi	r22,9
    3a90:	4039883a 	mov	fp,r8
    3a94:	9021883a 	mov	r16,r18
    3a98:	bdc00044 	addi	r23,r23,1
    3a9c:	88bff804 	addi	r2,r17,-32
    3aa0:	a0831e36 	bltu	r20,r2,471c <___svfprintf_internal_r+0xdd8>
    3aa4:	100490ba 	slli	r2,r2,2
    3aa8:	00c00034 	movhi	r3,0
    3aac:	18ceaf04 	addi	r3,r3,15036
    3ab0:	10c5883a 	add	r2,r2,r3
    3ab4:	10800017 	ldw	r2,0(r2)
    3ab8:	1000683a 	jmp	r2
    3abc:	00004664 	muli	zero,zero,281
    3ac0:	0000471c 	xori	zero,zero,284
    3ac4:	0000471c 	xori	zero,zero,284
    3ac8:	00004658 	cmpnei	zero,zero,281
    3acc:	0000471c 	xori	zero,zero,284
    3ad0:	0000471c 	xori	zero,zero,284
    3ad4:	0000471c 	xori	zero,zero,284
    3ad8:	0000471c 	xori	zero,zero,284
    3adc:	0000471c 	xori	zero,zero,284
    3ae0:	0000471c 	xori	zero,zero,284
    3ae4:	00003d24 	muli	zero,zero,244
    3ae8:	00004568 	cmpgeui	zero,zero,277
    3aec:	0000471c 	xori	zero,zero,284
    3af0:	00003c30 	cmpltui	zero,zero,240
    3af4:	00003d48 	cmpgei	zero,zero,245
    3af8:	0000471c 	xori	zero,zero,284
    3afc:	00003dd4 	movui	zero,247
    3b00:	00003d98 	cmpnei	zero,zero,246
    3b04:	00003d98 	cmpnei	zero,zero,246
    3b08:	00003d98 	cmpnei	zero,zero,246
    3b0c:	00003d98 	cmpnei	zero,zero,246
    3b10:	00003d98 	cmpnei	zero,zero,246
    3b14:	00003d98 	cmpnei	zero,zero,246
    3b18:	00003d98 	cmpnei	zero,zero,246
    3b1c:	00003d98 	cmpnei	zero,zero,246
    3b20:	00003d98 	cmpnei	zero,zero,246
    3b24:	0000471c 	xori	zero,zero,284
    3b28:	0000471c 	xori	zero,zero,284
    3b2c:	0000471c 	xori	zero,zero,284
    3b30:	0000471c 	xori	zero,zero,284
    3b34:	0000471c 	xori	zero,zero,284
    3b38:	0000471c 	xori	zero,zero,284
    3b3c:	0000471c 	xori	zero,zero,284
    3b40:	0000471c 	xori	zero,zero,284
    3b44:	0000471c 	xori	zero,zero,284
    3b48:	0000471c 	xori	zero,zero,284
    3b4c:	00003e98 	cmpnei	zero,zero,250
    3b50:	00003de0 	cmpeqi	zero,zero,247
    3b54:	0000471c 	xori	zero,zero,284
    3b58:	00003de0 	cmpeqi	zero,zero,247
    3b5c:	0000471c 	xori	zero,zero,284
    3b60:	0000471c 	xori	zero,zero,284
    3b64:	0000471c 	xori	zero,zero,284
    3b68:	0000471c 	xori	zero,zero,284
    3b6c:	00003e8c 	andi	zero,zero,250
    3b70:	0000471c 	xori	zero,zero,284
    3b74:	0000471c 	xori	zero,zero,284
    3b78:	00003f60 	cmpeqi	zero,zero,253
    3b7c:	0000471c 	xori	zero,zero,284
    3b80:	0000471c 	xori	zero,zero,284
    3b84:	0000471c 	xori	zero,zero,284
    3b88:	0000471c 	xori	zero,zero,284
    3b8c:	0000471c 	xori	zero,zero,284
    3b90:	000043dc 	xori	zero,zero,271
    3b94:	0000471c 	xori	zero,zero,284
    3b98:	0000471c 	xori	zero,zero,284
    3b9c:	00004448 	cmpgei	zero,zero,273
    3ba0:	0000471c 	xori	zero,zero,284
    3ba4:	0000471c 	xori	zero,zero,284
    3ba8:	0000471c 	xori	zero,zero,284
    3bac:	0000471c 	xori	zero,zero,284
    3bb0:	0000471c 	xori	zero,zero,284
    3bb4:	0000471c 	xori	zero,zero,284
    3bb8:	0000471c 	xori	zero,zero,284
    3bbc:	0000471c 	xori	zero,zero,284
    3bc0:	0000471c 	xori	zero,zero,284
    3bc4:	0000471c 	xori	zero,zero,284
    3bc8:	00004504 	movi	zero,276
    3bcc:	00004684 	movi	zero,282
    3bd0:	00003de0 	cmpeqi	zero,zero,247
    3bd4:	00003de0 	cmpeqi	zero,zero,247
    3bd8:	00003de0 	cmpeqi	zero,zero,247
    3bdc:	000046f8 	rdprs	zero,zero,283
    3be0:	00004684 	movi	zero,282
    3be4:	0000471c 	xori	zero,zero,284
    3be8:	0000471c 	xori	zero,zero,284
    3bec:	000046a4 	muli	zero,zero,282
    3bf0:	0000471c 	xori	zero,zero,284
    3bf4:	000046b8 	rdprs	zero,zero,282
    3bf8:	00004548 	cmpgei	zero,zero,277
    3bfc:	00003c3c 	xorhi	zero,zero,240
    3c00:	00004580 	call	458 <writeCanal+0x50>
    3c04:	0000471c 	xori	zero,zero,284
    3c08:	0000458c 	andi	zero,zero,278
    3c0c:	0000471c 	xori	zero,zero,284
    3c10:	000045f0 	cmpltui	zero,zero,279
    3c14:	0000471c 	xori	zero,zero,284
    3c18:	0000471c 	xori	zero,zero,284
    3c1c:	00004610 	cmplti	zero,zero,280
    3c20:	d8c03117 	ldw	r3,196(sp)
    3c24:	d8802e15 	stw	r2,184(sp)
    3c28:	00c7c83a 	sub	r3,zero,r3
    3c2c:	d8c03115 	stw	r3,196(sp)
    3c30:	84000114 	ori	r16,r16,4
    3c34:	bc400007 	ldb	r17,0(r23)
    3c38:	003f9706 	br	3a98 <__alt_data_end+0xf8003a98>
    3c3c:	00800c04 	movi	r2,48
    3c40:	d8802705 	stb	r2,156(sp)
    3c44:	00801e04 	movi	r2,120
    3c48:	d8802745 	stb	r2,157(sp)
    3c4c:	d9002a17 	ldw	r4,168(sp)
    3c50:	d8802e17 	ldw	r2,184(sp)
    3c54:	d8002785 	stb	zero,158(sp)
    3c58:	e011883a 	mov	r8,fp
    3c5c:	10c00104 	addi	r3,r2,4
    3c60:	15000017 	ldw	r20,0(r2)
    3c64:	002d883a 	mov	r22,zero
    3c68:	80800094 	ori	r2,r16,2
    3c6c:	2002b616 	blt	r4,zero,4748 <___svfprintf_internal_r+0xe04>
    3c70:	00bfdfc4 	movi	r2,-129
    3c74:	80a4703a 	and	r18,r16,r2
    3c78:	d8c02e15 	stw	r3,184(sp)
    3c7c:	94800094 	ori	r18,r18,2
    3c80:	a002a01e 	bne	r20,zero,4704 <___svfprintf_internal_r+0xdc0>
    3c84:	01400074 	movhi	r5,1
    3c88:	2957a604 	addi	r5,r5,24216
    3c8c:	d9403a15 	stw	r5,232(sp)
    3c90:	04401e04 	movi	r17,120
    3c94:	d8c02a17 	ldw	r3,168(sp)
    3c98:	0039883a 	mov	fp,zero
    3c9c:	1801e626 	beq	r3,zero,4438 <___svfprintf_internal_r+0xaf4>
    3ca0:	0029883a 	mov	r20,zero
    3ca4:	002d883a 	mov	r22,zero
    3ca8:	00020506 	br	44c0 <___svfprintf_internal_r+0xb7c>
    3cac:	d9402d17 	ldw	r5,180(sp)
    3cb0:	d9801e04 	addi	r6,sp,120
    3cb4:	9809883a 	mov	r4,r19
    3cb8:	000bdc80 	call	bdc8 <__ssprint_r>
    3cbc:	1000081e 	bne	r2,zero,3ce0 <___svfprintf_internal_r+0x39c>
    3cc0:	da000404 	addi	r8,sp,16
    3cc4:	003f6106 	br	3a4c <__alt_data_end+0xf8003a4c>
    3cc8:	d8802017 	ldw	r2,128(sp)
    3ccc:	10000426 	beq	r2,zero,3ce0 <___svfprintf_internal_r+0x39c>
    3cd0:	d9402d17 	ldw	r5,180(sp)
    3cd4:	d9003917 	ldw	r4,228(sp)
    3cd8:	d9801e04 	addi	r6,sp,120
    3cdc:	000bdc80 	call	bdc8 <__ssprint_r>
    3ce0:	d8802d17 	ldw	r2,180(sp)
    3ce4:	10c0030b 	ldhu	r3,12(r2)
    3ce8:	d8802f17 	ldw	r2,188(sp)
    3cec:	18c0100c 	andi	r3,r3,64
    3cf0:	1806251e 	bne	r3,zero,5588 <___svfprintf_internal_r+0x1c44>
    3cf4:	dfc04817 	ldw	ra,288(sp)
    3cf8:	df004717 	ldw	fp,284(sp)
    3cfc:	ddc04617 	ldw	r23,280(sp)
    3d00:	dd804517 	ldw	r22,276(sp)
    3d04:	dd404417 	ldw	r21,272(sp)
    3d08:	dd004317 	ldw	r20,268(sp)
    3d0c:	dcc04217 	ldw	r19,264(sp)
    3d10:	dc804117 	ldw	r18,260(sp)
    3d14:	dc404017 	ldw	r17,256(sp)
    3d18:	dc003f17 	ldw	r16,252(sp)
    3d1c:	dec04904 	addi	sp,sp,292
    3d20:	f800283a 	ret
    3d24:	d9002e17 	ldw	r4,184(sp)
    3d28:	d9402e17 	ldw	r5,184(sp)
    3d2c:	21000017 	ldw	r4,0(r4)
    3d30:	28800104 	addi	r2,r5,4
    3d34:	d9003115 	stw	r4,196(sp)
    3d38:	203fb916 	blt	r4,zero,3c20 <__alt_data_end+0xf8003c20>
    3d3c:	d8802e15 	stw	r2,184(sp)
    3d40:	bc400007 	ldb	r17,0(r23)
    3d44:	003f5406 	br	3a98 <__alt_data_end+0xf8003a98>
    3d48:	bc400007 	ldb	r17,0(r23)
    3d4c:	01000a84 	movi	r4,42
    3d50:	b8c00044 	addi	r3,r23,1
    3d54:	89076926 	beq	r17,r4,5afc <___svfprintf_internal_r+0x21b8>
    3d58:	8cbff404 	addi	r18,r17,-48
    3d5c:	b486b936 	bltu	r22,r18,5844 <___svfprintf_internal_r+0x1f00>
    3d60:	0009883a 	mov	r4,zero
    3d64:	1823883a 	mov	r17,r3
    3d68:	01400284 	movi	r5,10
    3d6c:	000fc140 	call	fc14 <__mulsi3>
    3d70:	88c00007 	ldb	r3,0(r17)
    3d74:	1489883a 	add	r4,r2,r18
    3d78:	8dc00044 	addi	r23,r17,1
    3d7c:	1cbff404 	addi	r18,r3,-48
    3d80:	b823883a 	mov	r17,r23
    3d84:	b4bff82e 	bgeu	r22,r18,3d68 <__alt_data_end+0xf8003d68>
    3d88:	1823883a 	mov	r17,r3
    3d8c:	20060416 	blt	r4,zero,55a0 <___svfprintf_internal_r+0x1c5c>
    3d90:	d9002a15 	stw	r4,168(sp)
    3d94:	003f4106 	br	3a9c <__alt_data_end+0xf8003a9c>
    3d98:	8cbff404 	addi	r18,r17,-48
    3d9c:	d8003115 	stw	zero,196(sp)
    3da0:	0009883a 	mov	r4,zero
    3da4:	b823883a 	mov	r17,r23
    3da8:	01400284 	movi	r5,10
    3dac:	000fc140 	call	fc14 <__mulsi3>
    3db0:	88c00007 	ldb	r3,0(r17)
    3db4:	9089883a 	add	r4,r18,r2
    3db8:	bdc00044 	addi	r23,r23,1
    3dbc:	1cbff404 	addi	r18,r3,-48
    3dc0:	b823883a 	mov	r17,r23
    3dc4:	b4bff82e 	bgeu	r22,r18,3da8 <__alt_data_end+0xf8003da8>
    3dc8:	1823883a 	mov	r17,r3
    3dcc:	d9003115 	stw	r4,196(sp)
    3dd0:	003f3206 	br	3a9c <__alt_data_end+0xf8003a9c>
    3dd4:	84002014 	ori	r16,r16,128
    3dd8:	bc400007 	ldb	r17,0(r23)
    3ddc:	003f2e06 	br	3a98 <__alt_data_end+0xf8003a98>
    3de0:	8025883a 	mov	r18,r16
    3de4:	dc002903 	ldbu	r16,164(sp)
    3de8:	e011883a 	mov	r8,fp
    3dec:	84003fcc 	andi	r16,r16,255
    3df0:	8007721e 	bne	r16,zero,5bbc <___svfprintf_internal_r+0x2278>
    3df4:	9080020c 	andi	r2,r18,8
    3df8:	1004a526 	beq	r2,zero,5090 <___svfprintf_internal_r+0x174c>
    3dfc:	d9002e17 	ldw	r4,184(sp)
    3e00:	d9402e17 	ldw	r5,184(sp)
    3e04:	d8802e17 	ldw	r2,184(sp)
    3e08:	21000017 	ldw	r4,0(r4)
    3e0c:	29400117 	ldw	r5,4(r5)
    3e10:	10800204 	addi	r2,r2,8
    3e14:	d9003615 	stw	r4,216(sp)
    3e18:	d9403715 	stw	r5,220(sp)
    3e1c:	d8802e15 	stw	r2,184(sp)
    3e20:	d9003617 	ldw	r4,216(sp)
    3e24:	d9403717 	ldw	r5,220(sp)
    3e28:	da003e15 	stw	r8,248(sp)
    3e2c:	04000044 	movi	r16,1
    3e30:	000bc780 	call	bc78 <__fpclassifyd>
    3e34:	da003e17 	ldw	r8,248(sp)
    3e38:	1404731e 	bne	r2,r16,5008 <___svfprintf_internal_r+0x16c4>
    3e3c:	d9003617 	ldw	r4,216(sp)
    3e40:	d9403717 	ldw	r5,220(sp)
    3e44:	000d883a 	mov	r6,zero
    3e48:	000f883a 	mov	r7,zero
    3e4c:	001101c0 	call	1101c <__ledf2>
    3e50:	da003e17 	ldw	r8,248(sp)
    3e54:	10061b16 	blt	r2,zero,56c4 <___svfprintf_internal_r+0x1d80>
    3e58:	df002783 	ldbu	fp,158(sp)
    3e5c:	008011c4 	movi	r2,71
    3e60:	1445810e 	bge	r2,r17,5468 <___svfprintf_internal_r+0x1b24>
    3e64:	04000074 	movhi	r16,1
    3e68:	84179e04 	addi	r16,r16,24184
    3e6c:	00c000c4 	movi	r3,3
    3e70:	00bfdfc4 	movi	r2,-129
    3e74:	d8c02915 	stw	r3,164(sp)
    3e78:	90a4703a 	and	r18,r18,r2
    3e7c:	d8c02b15 	stw	r3,172(sp)
    3e80:	d8002a15 	stw	zero,168(sp)
    3e84:	d8003215 	stw	zero,200(sp)
    3e88:	00006c06 	br	403c <___svfprintf_internal_r+0x6f8>
    3e8c:	84000214 	ori	r16,r16,8
    3e90:	bc400007 	ldb	r17,0(r23)
    3e94:	003f0006 	br	3a98 <__alt_data_end+0xf8003a98>
    3e98:	8025883a 	mov	r18,r16
    3e9c:	dc002903 	ldbu	r16,164(sp)
    3ea0:	e011883a 	mov	r8,fp
    3ea4:	84003fcc 	andi	r16,r16,255
    3ea8:	80073f1e 	bne	r16,zero,5ba8 <___svfprintf_internal_r+0x2264>
    3eac:	94800414 	ori	r18,r18,16
    3eb0:	9080080c 	andi	r2,r18,32
    3eb4:	1003bb26 	beq	r2,zero,4da4 <___svfprintf_internal_r+0x1460>
    3eb8:	d9002e17 	ldw	r4,184(sp)
    3ebc:	20800117 	ldw	r2,4(r4)
    3ec0:	25000017 	ldw	r20,0(r4)
    3ec4:	21000204 	addi	r4,r4,8
    3ec8:	d9002e15 	stw	r4,184(sp)
    3ecc:	102d883a 	mov	r22,r2
    3ed0:	1003bd16 	blt	r2,zero,4dc8 <___svfprintf_internal_r+0x1484>
    3ed4:	d9002a17 	ldw	r4,168(sp)
    3ed8:	df002783 	ldbu	fp,158(sp)
    3edc:	2003d016 	blt	r4,zero,4e20 <___svfprintf_internal_r+0x14dc>
    3ee0:	00ffdfc4 	movi	r3,-129
    3ee4:	a584b03a 	or	r2,r20,r22
    3ee8:	90e4703a 	and	r18,r18,r3
    3eec:	10015026 	beq	r2,zero,4430 <___svfprintf_internal_r+0xaec>
    3ef0:	b0037026 	beq	r22,zero,4cb4 <___svfprintf_internal_r+0x1370>
    3ef4:	dc402915 	stw	r17,164(sp)
    3ef8:	dc001e04 	addi	r16,sp,120
    3efc:	b023883a 	mov	r17,r22
    3f00:	402d883a 	mov	r22,r8
    3f04:	a009883a 	mov	r4,r20
    3f08:	880b883a 	mov	r5,r17
    3f0c:	01800284 	movi	r6,10
    3f10:	000f883a 	mov	r7,zero
    3f14:	000f6500 	call	f650 <__umoddi3>
    3f18:	10800c04 	addi	r2,r2,48
    3f1c:	843fffc4 	addi	r16,r16,-1
    3f20:	a009883a 	mov	r4,r20
    3f24:	880b883a 	mov	r5,r17
    3f28:	80800005 	stb	r2,0(r16)
    3f2c:	01800284 	movi	r6,10
    3f30:	000f883a 	mov	r7,zero
    3f34:	000f0540 	call	f054 <__udivdi3>
    3f38:	1029883a 	mov	r20,r2
    3f3c:	10c4b03a 	or	r2,r2,r3
    3f40:	1823883a 	mov	r17,r3
    3f44:	103fef1e 	bne	r2,zero,3f04 <__alt_data_end+0xf8003f04>
    3f48:	d8c02817 	ldw	r3,160(sp)
    3f4c:	dc402917 	ldw	r17,164(sp)
    3f50:	b011883a 	mov	r8,r22
    3f54:	1c07c83a 	sub	r3,r3,r16
    3f58:	d8c02b15 	stw	r3,172(sp)
    3f5c:	00003106 	br	4024 <___svfprintf_internal_r+0x6e0>
    3f60:	8025883a 	mov	r18,r16
    3f64:	dc002903 	ldbu	r16,164(sp)
    3f68:	e011883a 	mov	r8,fp
    3f6c:	84003fcc 	andi	r16,r16,255
    3f70:	80070a1e 	bne	r16,zero,5b9c <___svfprintf_internal_r+0x2258>
    3f74:	94800414 	ori	r18,r18,16
    3f78:	9080080c 	andi	r2,r18,32
    3f7c:	1002f626 	beq	r2,zero,4b58 <___svfprintf_internal_r+0x1214>
    3f80:	d9002e17 	ldw	r4,184(sp)
    3f84:	d9402a17 	ldw	r5,168(sp)
    3f88:	d8002785 	stb	zero,158(sp)
    3f8c:	20800204 	addi	r2,r4,8
    3f90:	25000017 	ldw	r20,0(r4)
    3f94:	25800117 	ldw	r22,4(r4)
    3f98:	28043716 	blt	r5,zero,5078 <___svfprintf_internal_r+0x1734>
    3f9c:	013fdfc4 	movi	r4,-129
    3fa0:	a586b03a 	or	r3,r20,r22
    3fa4:	d8802e15 	stw	r2,184(sp)
    3fa8:	9124703a 	and	r18,r18,r4
    3fac:	1802f71e 	bne	r3,zero,4b8c <___svfprintf_internal_r+0x1248>
    3fb0:	d9402a17 	ldw	r5,168(sp)
    3fb4:	0039883a 	mov	fp,zero
    3fb8:	2806df26 	beq	r5,zero,5b38 <___svfprintf_internal_r+0x21f4>
    3fbc:	0029883a 	mov	r20,zero
    3fc0:	002d883a 	mov	r22,zero
    3fc4:	dc001e04 	addi	r16,sp,120
    3fc8:	a006d0fa 	srli	r3,r20,3
    3fcc:	b008977a 	slli	r4,r22,29
    3fd0:	b02cd0fa 	srli	r22,r22,3
    3fd4:	a50001cc 	andi	r20,r20,7
    3fd8:	a0800c04 	addi	r2,r20,48
    3fdc:	843fffc4 	addi	r16,r16,-1
    3fe0:	20e8b03a 	or	r20,r4,r3
    3fe4:	80800005 	stb	r2,0(r16)
    3fe8:	a586b03a 	or	r3,r20,r22
    3fec:	183ff61e 	bne	r3,zero,3fc8 <__alt_data_end+0xf8003fc8>
    3ff0:	90c0004c 	andi	r3,r18,1
    3ff4:	18013f26 	beq	r3,zero,44f4 <___svfprintf_internal_r+0xbb0>
    3ff8:	10803fcc 	andi	r2,r2,255
    3ffc:	1080201c 	xori	r2,r2,128
    4000:	10bfe004 	addi	r2,r2,-128
    4004:	00c00c04 	movi	r3,48
    4008:	10c13a26 	beq	r2,r3,44f4 <___svfprintf_internal_r+0xbb0>
    400c:	80ffffc5 	stb	r3,-1(r16)
    4010:	d8c02817 	ldw	r3,160(sp)
    4014:	80bfffc4 	addi	r2,r16,-1
    4018:	1021883a 	mov	r16,r2
    401c:	1887c83a 	sub	r3,r3,r2
    4020:	d8c02b15 	stw	r3,172(sp)
    4024:	d8802b17 	ldw	r2,172(sp)
    4028:	d9002a17 	ldw	r4,168(sp)
    402c:	1100010e 	bge	r2,r4,4034 <___svfprintf_internal_r+0x6f0>
    4030:	2005883a 	mov	r2,r4
    4034:	d8802915 	stw	r2,164(sp)
    4038:	d8003215 	stw	zero,200(sp)
    403c:	e7003fcc 	andi	fp,fp,255
    4040:	e700201c 	xori	fp,fp,128
    4044:	e73fe004 	addi	fp,fp,-128
    4048:	e0000326 	beq	fp,zero,4058 <___svfprintf_internal_r+0x714>
    404c:	d8c02917 	ldw	r3,164(sp)
    4050:	18c00044 	addi	r3,r3,1
    4054:	d8c02915 	stw	r3,164(sp)
    4058:	90c0008c 	andi	r3,r18,2
    405c:	d8c02c15 	stw	r3,176(sp)
    4060:	18000326 	beq	r3,zero,4070 <___svfprintf_internal_r+0x72c>
    4064:	d8c02917 	ldw	r3,164(sp)
    4068:	18c00084 	addi	r3,r3,2
    406c:	d8c02915 	stw	r3,164(sp)
    4070:	90c0210c 	andi	r3,r18,132
    4074:	d8c03015 	stw	r3,192(sp)
    4078:	1801c31e 	bne	r3,zero,4788 <___svfprintf_internal_r+0xe44>
    407c:	d9003117 	ldw	r4,196(sp)
    4080:	d8c02917 	ldw	r3,164(sp)
    4084:	20e9c83a 	sub	r20,r4,r3
    4088:	0501bf0e 	bge	zero,r20,4788 <___svfprintf_internal_r+0xe44>
    408c:	02400404 	movi	r9,16
    4090:	d8c02017 	ldw	r3,128(sp)
    4094:	d8801f17 	ldw	r2,124(sp)
    4098:	4d053d0e 	bge	r9,r20,5590 <___svfprintf_internal_r+0x1c4c>
    409c:	01400074 	movhi	r5,1
    40a0:	2957b184 	addi	r5,r5,24262
    40a4:	dc403c15 	stw	r17,240(sp)
    40a8:	d9403515 	stw	r5,212(sp)
    40ac:	a023883a 	mov	r17,r20
    40b0:	482d883a 	mov	r22,r9
    40b4:	9029883a 	mov	r20,r18
    40b8:	070001c4 	movi	fp,7
    40bc:	8025883a 	mov	r18,r16
    40c0:	dc002d17 	ldw	r16,180(sp)
    40c4:	00000306 	br	40d4 <___svfprintf_internal_r+0x790>
    40c8:	8c7ffc04 	addi	r17,r17,-16
    40cc:	42000204 	addi	r8,r8,8
    40d0:	b440130e 	bge	r22,r17,4120 <___svfprintf_internal_r+0x7dc>
    40d4:	01000074 	movhi	r4,1
    40d8:	18c00404 	addi	r3,r3,16
    40dc:	10800044 	addi	r2,r2,1
    40e0:	2117b184 	addi	r4,r4,24262
    40e4:	41000015 	stw	r4,0(r8)
    40e8:	45800115 	stw	r22,4(r8)
    40ec:	d8c02015 	stw	r3,128(sp)
    40f0:	d8801f15 	stw	r2,124(sp)
    40f4:	e0bff40e 	bge	fp,r2,40c8 <__alt_data_end+0xf80040c8>
    40f8:	d9801e04 	addi	r6,sp,120
    40fc:	800b883a 	mov	r5,r16
    4100:	9809883a 	mov	r4,r19
    4104:	000bdc80 	call	bdc8 <__ssprint_r>
    4108:	103ef51e 	bne	r2,zero,3ce0 <__alt_data_end+0xf8003ce0>
    410c:	8c7ffc04 	addi	r17,r17,-16
    4110:	d8c02017 	ldw	r3,128(sp)
    4114:	d8801f17 	ldw	r2,124(sp)
    4118:	da000404 	addi	r8,sp,16
    411c:	b47fed16 	blt	r22,r17,40d4 <__alt_data_end+0xf80040d4>
    4120:	9021883a 	mov	r16,r18
    4124:	a025883a 	mov	r18,r20
    4128:	8829883a 	mov	r20,r17
    412c:	dc403c17 	ldw	r17,240(sp)
    4130:	d9403517 	ldw	r5,212(sp)
    4134:	a0c7883a 	add	r3,r20,r3
    4138:	10800044 	addi	r2,r2,1
    413c:	41400015 	stw	r5,0(r8)
    4140:	45000115 	stw	r20,4(r8)
    4144:	d8c02015 	stw	r3,128(sp)
    4148:	d8801f15 	stw	r2,124(sp)
    414c:	010001c4 	movi	r4,7
    4150:	2082c116 	blt	r4,r2,4c58 <___svfprintf_internal_r+0x1314>
    4154:	df002787 	ldb	fp,158(sp)
    4158:	42000204 	addi	r8,r8,8
    415c:	e0000c26 	beq	fp,zero,4190 <___svfprintf_internal_r+0x84c>
    4160:	d8801f17 	ldw	r2,124(sp)
    4164:	d9002784 	addi	r4,sp,158
    4168:	18c00044 	addi	r3,r3,1
    416c:	10800044 	addi	r2,r2,1
    4170:	41000015 	stw	r4,0(r8)
    4174:	01000044 	movi	r4,1
    4178:	41000115 	stw	r4,4(r8)
    417c:	d8c02015 	stw	r3,128(sp)
    4180:	d8801f15 	stw	r2,124(sp)
    4184:	010001c4 	movi	r4,7
    4188:	20825a16 	blt	r4,r2,4af4 <___svfprintf_internal_r+0x11b0>
    418c:	42000204 	addi	r8,r8,8
    4190:	d8802c17 	ldw	r2,176(sp)
    4194:	10000c26 	beq	r2,zero,41c8 <___svfprintf_internal_r+0x884>
    4198:	d8801f17 	ldw	r2,124(sp)
    419c:	d9002704 	addi	r4,sp,156
    41a0:	18c00084 	addi	r3,r3,2
    41a4:	10800044 	addi	r2,r2,1
    41a8:	41000015 	stw	r4,0(r8)
    41ac:	01000084 	movi	r4,2
    41b0:	41000115 	stw	r4,4(r8)
    41b4:	d8c02015 	stw	r3,128(sp)
    41b8:	d8801f15 	stw	r2,124(sp)
    41bc:	010001c4 	movi	r4,7
    41c0:	20825416 	blt	r4,r2,4b14 <___svfprintf_internal_r+0x11d0>
    41c4:	42000204 	addi	r8,r8,8
    41c8:	d9003017 	ldw	r4,192(sp)
    41cc:	00802004 	movi	r2,128
    41d0:	2081b926 	beq	r4,r2,48b8 <___svfprintf_internal_r+0xf74>
    41d4:	d9402a17 	ldw	r5,168(sp)
    41d8:	d8802b17 	ldw	r2,172(sp)
    41dc:	28adc83a 	sub	r22,r5,r2
    41e0:	05802f0e 	bge	zero,r22,42a0 <___svfprintf_internal_r+0x95c>
    41e4:	07000404 	movi	fp,16
    41e8:	d8801f17 	ldw	r2,124(sp)
    41ec:	e583e20e 	bge	fp,r22,5178 <___svfprintf_internal_r+0x1834>
    41f0:	01400074 	movhi	r5,1
    41f4:	2957ad84 	addi	r5,r5,24246
    41f8:	dc402a15 	stw	r17,168(sp)
    41fc:	d9402c15 	stw	r5,176(sp)
    4200:	b023883a 	mov	r17,r22
    4204:	050001c4 	movi	r20,7
    4208:	902d883a 	mov	r22,r18
    420c:	8025883a 	mov	r18,r16
    4210:	dc002d17 	ldw	r16,180(sp)
    4214:	00000306 	br	4224 <___svfprintf_internal_r+0x8e0>
    4218:	8c7ffc04 	addi	r17,r17,-16
    421c:	42000204 	addi	r8,r8,8
    4220:	e440110e 	bge	fp,r17,4268 <___svfprintf_internal_r+0x924>
    4224:	18c00404 	addi	r3,r3,16
    4228:	10800044 	addi	r2,r2,1
    422c:	45400015 	stw	r21,0(r8)
    4230:	47000115 	stw	fp,4(r8)
    4234:	d8c02015 	stw	r3,128(sp)
    4238:	d8801f15 	stw	r2,124(sp)
    423c:	a0bff60e 	bge	r20,r2,4218 <__alt_data_end+0xf8004218>
    4240:	d9801e04 	addi	r6,sp,120
    4244:	800b883a 	mov	r5,r16
    4248:	9809883a 	mov	r4,r19
    424c:	000bdc80 	call	bdc8 <__ssprint_r>
    4250:	103ea31e 	bne	r2,zero,3ce0 <__alt_data_end+0xf8003ce0>
    4254:	8c7ffc04 	addi	r17,r17,-16
    4258:	d8c02017 	ldw	r3,128(sp)
    425c:	d8801f17 	ldw	r2,124(sp)
    4260:	da000404 	addi	r8,sp,16
    4264:	e47fef16 	blt	fp,r17,4224 <__alt_data_end+0xf8004224>
    4268:	9021883a 	mov	r16,r18
    426c:	b025883a 	mov	r18,r22
    4270:	882d883a 	mov	r22,r17
    4274:	dc402a17 	ldw	r17,168(sp)
    4278:	d9002c17 	ldw	r4,176(sp)
    427c:	1d87883a 	add	r3,r3,r22
    4280:	10800044 	addi	r2,r2,1
    4284:	41000015 	stw	r4,0(r8)
    4288:	45800115 	stw	r22,4(r8)
    428c:	d8c02015 	stw	r3,128(sp)
    4290:	d8801f15 	stw	r2,124(sp)
    4294:	010001c4 	movi	r4,7
    4298:	20820e16 	blt	r4,r2,4ad4 <___svfprintf_internal_r+0x1190>
    429c:	42000204 	addi	r8,r8,8
    42a0:	9080400c 	andi	r2,r18,256
    42a4:	10013a1e 	bne	r2,zero,4790 <___svfprintf_internal_r+0xe4c>
    42a8:	d9402b17 	ldw	r5,172(sp)
    42ac:	d8801f17 	ldw	r2,124(sp)
    42b0:	44000015 	stw	r16,0(r8)
    42b4:	1947883a 	add	r3,r3,r5
    42b8:	10800044 	addi	r2,r2,1
    42bc:	41400115 	stw	r5,4(r8)
    42c0:	d8c02015 	stw	r3,128(sp)
    42c4:	d8801f15 	stw	r2,124(sp)
    42c8:	010001c4 	movi	r4,7
    42cc:	2081f316 	blt	r4,r2,4a9c <___svfprintf_internal_r+0x1158>
    42d0:	42000204 	addi	r8,r8,8
    42d4:	9480010c 	andi	r18,r18,4
    42d8:	90003226 	beq	r18,zero,43a4 <___svfprintf_internal_r+0xa60>
    42dc:	d9403117 	ldw	r5,196(sp)
    42e0:	d8802917 	ldw	r2,164(sp)
    42e4:	28a1c83a 	sub	r16,r5,r2
    42e8:	04002e0e 	bge	zero,r16,43a4 <___svfprintf_internal_r+0xa60>
    42ec:	04400404 	movi	r17,16
    42f0:	d8801f17 	ldw	r2,124(sp)
    42f4:	8c04db0e 	bge	r17,r16,5664 <___svfprintf_internal_r+0x1d20>
    42f8:	01400074 	movhi	r5,1
    42fc:	2957b184 	addi	r5,r5,24262
    4300:	d9403515 	stw	r5,212(sp)
    4304:	048001c4 	movi	r18,7
    4308:	dd002d17 	ldw	r20,180(sp)
    430c:	00000306 	br	431c <___svfprintf_internal_r+0x9d8>
    4310:	843ffc04 	addi	r16,r16,-16
    4314:	42000204 	addi	r8,r8,8
    4318:	8c00130e 	bge	r17,r16,4368 <___svfprintf_internal_r+0xa24>
    431c:	01000074 	movhi	r4,1
    4320:	18c00404 	addi	r3,r3,16
    4324:	10800044 	addi	r2,r2,1
    4328:	2117b184 	addi	r4,r4,24262
    432c:	41000015 	stw	r4,0(r8)
    4330:	44400115 	stw	r17,4(r8)
    4334:	d8c02015 	stw	r3,128(sp)
    4338:	d8801f15 	stw	r2,124(sp)
    433c:	90bff40e 	bge	r18,r2,4310 <__alt_data_end+0xf8004310>
    4340:	d9801e04 	addi	r6,sp,120
    4344:	a00b883a 	mov	r5,r20
    4348:	9809883a 	mov	r4,r19
    434c:	000bdc80 	call	bdc8 <__ssprint_r>
    4350:	103e631e 	bne	r2,zero,3ce0 <__alt_data_end+0xf8003ce0>
    4354:	843ffc04 	addi	r16,r16,-16
    4358:	d8c02017 	ldw	r3,128(sp)
    435c:	d8801f17 	ldw	r2,124(sp)
    4360:	da000404 	addi	r8,sp,16
    4364:	8c3fed16 	blt	r17,r16,431c <__alt_data_end+0xf800431c>
    4368:	d9403517 	ldw	r5,212(sp)
    436c:	1c07883a 	add	r3,r3,r16
    4370:	10800044 	addi	r2,r2,1
    4374:	41400015 	stw	r5,0(r8)
    4378:	44000115 	stw	r16,4(r8)
    437c:	d8c02015 	stw	r3,128(sp)
    4380:	d8801f15 	stw	r2,124(sp)
    4384:	010001c4 	movi	r4,7
    4388:	2080060e 	bge	r4,r2,43a4 <___svfprintf_internal_r+0xa60>
    438c:	d9402d17 	ldw	r5,180(sp)
    4390:	d9801e04 	addi	r6,sp,120
    4394:	9809883a 	mov	r4,r19
    4398:	000bdc80 	call	bdc8 <__ssprint_r>
    439c:	103e501e 	bne	r2,zero,3ce0 <__alt_data_end+0xf8003ce0>
    43a0:	d8c02017 	ldw	r3,128(sp)
    43a4:	d8803117 	ldw	r2,196(sp)
    43a8:	d9002917 	ldw	r4,164(sp)
    43ac:	1100010e 	bge	r2,r4,43b4 <___svfprintf_internal_r+0xa70>
    43b0:	2005883a 	mov	r2,r4
    43b4:	d9402f17 	ldw	r5,188(sp)
    43b8:	288b883a 	add	r5,r5,r2
    43bc:	d9402f15 	stw	r5,188(sp)
    43c0:	1801be1e 	bne	r3,zero,4abc <___svfprintf_internal_r+0x1178>
    43c4:	b8800007 	ldb	r2,0(r23)
    43c8:	d8001f15 	stw	zero,124(sp)
    43cc:	da000404 	addi	r8,sp,16
    43d0:	103d891e 	bne	r2,zero,39f8 <__alt_data_end+0xf80039f8>
    43d4:	b823883a 	mov	r17,r23
    43d8:	003d9f06 	br	3a58 <__alt_data_end+0xf8003a58>
    43dc:	8025883a 	mov	r18,r16
    43e0:	dc002903 	ldbu	r16,164(sp)
    43e4:	e011883a 	mov	r8,fp
    43e8:	84003fcc 	andi	r16,r16,255
    43ec:	8005e61e 	bne	r16,zero,5b88 <___svfprintf_internal_r+0x2244>
    43f0:	94800414 	ori	r18,r18,16
    43f4:	9080080c 	andi	r2,r18,32
    43f8:	10022026 	beq	r2,zero,4c7c <___svfprintf_internal_r+0x1338>
    43fc:	d9002e17 	ldw	r4,184(sp)
    4400:	d9402a17 	ldw	r5,168(sp)
    4404:	d8002785 	stb	zero,158(sp)
    4408:	20c00204 	addi	r3,r4,8
    440c:	25000017 	ldw	r20,0(r4)
    4410:	25800117 	ldw	r22,4(r4)
    4414:	2803ad16 	blt	r5,zero,52cc <___svfprintf_internal_r+0x1988>
    4418:	013fdfc4 	movi	r4,-129
    441c:	a584b03a 	or	r2,r20,r22
    4420:	d8c02e15 	stw	r3,184(sp)
    4424:	9124703a 	and	r18,r18,r4
    4428:	0039883a 	mov	fp,zero
    442c:	103eb01e 	bne	r2,zero,3ef0 <__alt_data_end+0xf8003ef0>
    4430:	d8802a17 	ldw	r2,168(sp)
    4434:	1002e71e 	bne	r2,zero,4fd4 <___svfprintf_internal_r+0x1690>
    4438:	d8002a15 	stw	zero,168(sp)
    443c:	d8002b15 	stw	zero,172(sp)
    4440:	dc001e04 	addi	r16,sp,120
    4444:	003ef706 	br	4024 <__alt_data_end+0xf8004024>
    4448:	8025883a 	mov	r18,r16
    444c:	dc002903 	ldbu	r16,164(sp)
    4450:	e011883a 	mov	r8,fp
    4454:	84003fcc 	andi	r16,r16,255
    4458:	8005c81e 	bne	r16,zero,5b7c <___svfprintf_internal_r+0x2238>
    445c:	01000074 	movhi	r4,1
    4460:	2117a104 	addi	r4,r4,24196
    4464:	d9003a15 	stw	r4,232(sp)
    4468:	9080080c 	andi	r2,r18,32
    446c:	10007226 	beq	r2,zero,4638 <___svfprintf_internal_r+0xcf4>
    4470:	d9402e17 	ldw	r5,184(sp)
    4474:	2d000017 	ldw	r20,0(r5)
    4478:	2d800117 	ldw	r22,4(r5)
    447c:	29400204 	addi	r5,r5,8
    4480:	d9402e15 	stw	r5,184(sp)
    4484:	9080004c 	andi	r2,r18,1
    4488:	1001aa26 	beq	r2,zero,4b34 <___svfprintf_internal_r+0x11f0>
    448c:	a584b03a 	or	r2,r20,r22
    4490:	10032526 	beq	r2,zero,5128 <___svfprintf_internal_r+0x17e4>
    4494:	d8c02a17 	ldw	r3,168(sp)
    4498:	00800c04 	movi	r2,48
    449c:	d8802705 	stb	r2,156(sp)
    44a0:	dc402745 	stb	r17,157(sp)
    44a4:	d8002785 	stb	zero,158(sp)
    44a8:	90800094 	ori	r2,r18,2
    44ac:	1804a316 	blt	r3,zero,573c <___svfprintf_internal_r+0x1df8>
    44b0:	00bfdfc4 	movi	r2,-129
    44b4:	90a4703a 	and	r18,r18,r2
    44b8:	94800094 	ori	r18,r18,2
    44bc:	0039883a 	mov	fp,zero
    44c0:	d9003a17 	ldw	r4,232(sp)
    44c4:	dc001e04 	addi	r16,sp,120
    44c8:	a08003cc 	andi	r2,r20,15
    44cc:	b006973a 	slli	r3,r22,28
    44d0:	2085883a 	add	r2,r4,r2
    44d4:	a028d13a 	srli	r20,r20,4
    44d8:	10800003 	ldbu	r2,0(r2)
    44dc:	b02cd13a 	srli	r22,r22,4
    44e0:	843fffc4 	addi	r16,r16,-1
    44e4:	1d28b03a 	or	r20,r3,r20
    44e8:	80800005 	stb	r2,0(r16)
    44ec:	a584b03a 	or	r2,r20,r22
    44f0:	103ff51e 	bne	r2,zero,44c8 <__alt_data_end+0xf80044c8>
    44f4:	d8c02817 	ldw	r3,160(sp)
    44f8:	1c07c83a 	sub	r3,r3,r16
    44fc:	d8c02b15 	stw	r3,172(sp)
    4500:	003ec806 	br	4024 <__alt_data_end+0xf8004024>
    4504:	d8c02e17 	ldw	r3,184(sp)
    4508:	d9002e17 	ldw	r4,184(sp)
    450c:	8025883a 	mov	r18,r16
    4510:	18800017 	ldw	r2,0(r3)
    4514:	21000104 	addi	r4,r4,4
    4518:	00c00044 	movi	r3,1
    451c:	e011883a 	mov	r8,fp
    4520:	d8c02915 	stw	r3,164(sp)
    4524:	d8002785 	stb	zero,158(sp)
    4528:	d8801405 	stb	r2,80(sp)
    452c:	d9002e15 	stw	r4,184(sp)
    4530:	d8c02b15 	stw	r3,172(sp)
    4534:	d8002a15 	stw	zero,168(sp)
    4538:	d8003215 	stw	zero,200(sp)
    453c:	dc001404 	addi	r16,sp,80
    4540:	0039883a 	mov	fp,zero
    4544:	003ec406 	br	4058 <__alt_data_end+0xf8004058>
    4548:	8025883a 	mov	r18,r16
    454c:	dc002903 	ldbu	r16,164(sp)
    4550:	e011883a 	mov	r8,fp
    4554:	84003fcc 	andi	r16,r16,255
    4558:	803e8726 	beq	r16,zero,3f78 <__alt_data_end+0xf8003f78>
    455c:	d8c02b03 	ldbu	r3,172(sp)
    4560:	d8c02785 	stb	r3,158(sp)
    4564:	003e8406 	br	3f78 <__alt_data_end+0xf8003f78>
    4568:	00c00044 	movi	r3,1
    456c:	d8c02905 	stb	r3,164(sp)
    4570:	00c00ac4 	movi	r3,43
    4574:	d8c02b05 	stb	r3,172(sp)
    4578:	bc400007 	ldb	r17,0(r23)
    457c:	003d4606 	br	3a98 <__alt_data_end+0xf8003a98>
    4580:	84000814 	ori	r16,r16,32
    4584:	bc400007 	ldb	r17,0(r23)
    4588:	003d4306 	br	3a98 <__alt_data_end+0xf8003a98>
    458c:	d8802e17 	ldw	r2,184(sp)
    4590:	8025883a 	mov	r18,r16
    4594:	d8002785 	stb	zero,158(sp)
    4598:	14000017 	ldw	r16,0(r2)
    459c:	e011883a 	mov	r8,fp
    45a0:	15000104 	addi	r20,r2,4
    45a4:	80042126 	beq	r16,zero,562c <___svfprintf_internal_r+0x1ce8>
    45a8:	d8c02a17 	ldw	r3,168(sp)
    45ac:	1803ee16 	blt	r3,zero,5568 <___svfprintf_internal_r+0x1c24>
    45b0:	180d883a 	mov	r6,r3
    45b4:	000b883a 	mov	r5,zero
    45b8:	8009883a 	mov	r4,r16
    45bc:	df003e15 	stw	fp,248(sp)
    45c0:	000a2740 	call	a274 <memchr>
    45c4:	da003e17 	ldw	r8,248(sp)
    45c8:	10046a26 	beq	r2,zero,5774 <___svfprintf_internal_r+0x1e30>
    45cc:	1405c83a 	sub	r2,r2,r16
    45d0:	d8802b15 	stw	r2,172(sp)
    45d4:	1003ea16 	blt	r2,zero,5580 <___svfprintf_internal_r+0x1c3c>
    45d8:	df002783 	ldbu	fp,158(sp)
    45dc:	d8802915 	stw	r2,164(sp)
    45e0:	dd002e15 	stw	r20,184(sp)
    45e4:	d8002a15 	stw	zero,168(sp)
    45e8:	d8003215 	stw	zero,200(sp)
    45ec:	003e9306 	br	403c <__alt_data_end+0xf800403c>
    45f0:	8025883a 	mov	r18,r16
    45f4:	dc002903 	ldbu	r16,164(sp)
    45f8:	e011883a 	mov	r8,fp
    45fc:	84003fcc 	andi	r16,r16,255
    4600:	803f7c26 	beq	r16,zero,43f4 <__alt_data_end+0xf80043f4>
    4604:	d8c02b03 	ldbu	r3,172(sp)
    4608:	d8c02785 	stb	r3,158(sp)
    460c:	003f7906 	br	43f4 <__alt_data_end+0xf80043f4>
    4610:	8025883a 	mov	r18,r16
    4614:	dc002903 	ldbu	r16,164(sp)
    4618:	e011883a 	mov	r8,fp
    461c:	84003fcc 	andi	r16,r16,255
    4620:	8005741e 	bne	r16,zero,5bf4 <___svfprintf_internal_r+0x22b0>
    4624:	01000074 	movhi	r4,1
    4628:	2117a604 	addi	r4,r4,24216
    462c:	d9003a15 	stw	r4,232(sp)
    4630:	9080080c 	andi	r2,r18,32
    4634:	103f8e1e 	bne	r2,zero,4470 <__alt_data_end+0xf8004470>
    4638:	9080040c 	andi	r2,r18,16
    463c:	1002a726 	beq	r2,zero,50dc <___svfprintf_internal_r+0x1798>
    4640:	d8802e17 	ldw	r2,184(sp)
    4644:	002d883a 	mov	r22,zero
    4648:	15000017 	ldw	r20,0(r2)
    464c:	10800104 	addi	r2,r2,4
    4650:	d8802e15 	stw	r2,184(sp)
    4654:	003f8b06 	br	4484 <__alt_data_end+0xf8004484>
    4658:	84000054 	ori	r16,r16,1
    465c:	bc400007 	ldb	r17,0(r23)
    4660:	003d0d06 	br	3a98 <__alt_data_end+0xf8003a98>
    4664:	d8802b07 	ldb	r2,172(sp)
    4668:	1002a41e 	bne	r2,zero,50fc <___svfprintf_internal_r+0x17b8>
    466c:	00c00044 	movi	r3,1
    4670:	d8c02905 	stb	r3,164(sp)
    4674:	00c00804 	movi	r3,32
    4678:	d8c02b05 	stb	r3,172(sp)
    467c:	bc400007 	ldb	r17,0(r23)
    4680:	003d0506 	br	3a98 <__alt_data_end+0xf8003a98>
    4684:	8025883a 	mov	r18,r16
    4688:	dc002903 	ldbu	r16,164(sp)
    468c:	e011883a 	mov	r8,fp
    4690:	84003fcc 	andi	r16,r16,255
    4694:	803e0626 	beq	r16,zero,3eb0 <__alt_data_end+0xf8003eb0>
    4698:	d8c02b03 	ldbu	r3,172(sp)
    469c:	d8c02785 	stb	r3,158(sp)
    46a0:	003e0306 	br	3eb0 <__alt_data_end+0xf8003eb0>
    46a4:	bc400007 	ldb	r17,0(r23)
    46a8:	00801b04 	movi	r2,108
    46ac:	88830a26 	beq	r17,r2,52d8 <___svfprintf_internal_r+0x1994>
    46b0:	84000414 	ori	r16,r16,16
    46b4:	003cf806 	br	3a98 <__alt_data_end+0xf8003a98>
    46b8:	8025883a 	mov	r18,r16
    46bc:	dc002903 	ldbu	r16,164(sp)
    46c0:	e011883a 	mov	r8,fp
    46c4:	84003fcc 	andi	r16,r16,255
    46c8:	8005471e 	bne	r16,zero,5be8 <___svfprintf_internal_r+0x22a4>
    46cc:	9080080c 	andi	r2,r18,32
    46d0:	10028c26 	beq	r2,zero,5104 <___svfprintf_internal_r+0x17c0>
    46d4:	d9002e17 	ldw	r4,184(sp)
    46d8:	d9402f17 	ldw	r5,188(sp)
    46dc:	20800017 	ldw	r2,0(r4)
    46e0:	2807d7fa 	srai	r3,r5,31
    46e4:	21000104 	addi	r4,r4,4
    46e8:	d9002e15 	stw	r4,184(sp)
    46ec:	11400015 	stw	r5,0(r2)
    46f0:	10c00115 	stw	r3,4(r2)
    46f4:	003cbe06 	br	39f0 <__alt_data_end+0xf80039f0>
    46f8:	84001014 	ori	r16,r16,64
    46fc:	bc400007 	ldb	r17,0(r23)
    4700:	003ce506 	br	3a98 <__alt_data_end+0xf8003a98>
    4704:	01000074 	movhi	r4,1
    4708:	2117a604 	addi	r4,r4,24216
    470c:	0039883a 	mov	fp,zero
    4710:	d9003a15 	stw	r4,232(sp)
    4714:	04401e04 	movi	r17,120
    4718:	003f6906 	br	44c0 <__alt_data_end+0xf80044c0>
    471c:	8025883a 	mov	r18,r16
    4720:	dc002903 	ldbu	r16,164(sp)
    4724:	e011883a 	mov	r8,fp
    4728:	84003fcc 	andi	r16,r16,255
    472c:	8005261e 	bne	r16,zero,5bc8 <___svfprintf_internal_r+0x2284>
    4730:	883d6526 	beq	r17,zero,3cc8 <__alt_data_end+0xf8003cc8>
    4734:	00c00044 	movi	r3,1
    4738:	d8c02915 	stw	r3,164(sp)
    473c:	dc401405 	stb	r17,80(sp)
    4740:	d8002785 	stb	zero,158(sp)
    4744:	003f7a06 	br	4530 <__alt_data_end+0xf8004530>
    4748:	01000074 	movhi	r4,1
    474c:	2117a604 	addi	r4,r4,24216
    4750:	d9003a15 	stw	r4,232(sp)
    4754:	d8c02e15 	stw	r3,184(sp)
    4758:	1025883a 	mov	r18,r2
    475c:	04401e04 	movi	r17,120
    4760:	a584b03a 	or	r2,r20,r22
    4764:	1000fa1e 	bne	r2,zero,4b50 <___svfprintf_internal_r+0x120c>
    4768:	0039883a 	mov	fp,zero
    476c:	00800084 	movi	r2,2
    4770:	10803fcc 	andi	r2,r2,255
    4774:	00c00044 	movi	r3,1
    4778:	10c21626 	beq	r2,r3,4fd4 <___svfprintf_internal_r+0x1690>
    477c:	00c00084 	movi	r3,2
    4780:	10fe0e1e 	bne	r2,r3,3fbc <__alt_data_end+0xf8003fbc>
    4784:	003d4606 	br	3ca0 <__alt_data_end+0xf8003ca0>
    4788:	d8c02017 	ldw	r3,128(sp)
    478c:	003e7306 	br	415c <__alt_data_end+0xf800415c>
    4790:	00801944 	movi	r2,101
    4794:	14407c0e 	bge	r2,r17,4988 <___svfprintf_internal_r+0x1044>
    4798:	d9003617 	ldw	r4,216(sp)
    479c:	d9403717 	ldw	r5,220(sp)
    47a0:	000d883a 	mov	r6,zero
    47a4:	000f883a 	mov	r7,zero
    47a8:	d8c03d15 	stw	r3,244(sp)
    47ac:	da003e15 	stw	r8,248(sp)
    47b0:	0010eb80 	call	10eb8 <__eqdf2>
    47b4:	d8c03d17 	ldw	r3,244(sp)
    47b8:	da003e17 	ldw	r8,248(sp)
    47bc:	1000f51e 	bne	r2,zero,4b94 <___svfprintf_internal_r+0x1250>
    47c0:	d8801f17 	ldw	r2,124(sp)
    47c4:	01000074 	movhi	r4,1
    47c8:	2117ad04 	addi	r4,r4,24244
    47cc:	18c00044 	addi	r3,r3,1
    47d0:	10800044 	addi	r2,r2,1
    47d4:	41000015 	stw	r4,0(r8)
    47d8:	01000044 	movi	r4,1
    47dc:	41000115 	stw	r4,4(r8)
    47e0:	d8c02015 	stw	r3,128(sp)
    47e4:	d8801f15 	stw	r2,124(sp)
    47e8:	010001c4 	movi	r4,7
    47ec:	20826616 	blt	r4,r2,5188 <___svfprintf_internal_r+0x1844>
    47f0:	42000204 	addi	r8,r8,8
    47f4:	d8802617 	ldw	r2,152(sp)
    47f8:	d9403317 	ldw	r5,204(sp)
    47fc:	11400216 	blt	r2,r5,4808 <___svfprintf_internal_r+0xec4>
    4800:	9080004c 	andi	r2,r18,1
    4804:	103eb326 	beq	r2,zero,42d4 <__alt_data_end+0xf80042d4>
    4808:	d8803817 	ldw	r2,224(sp)
    480c:	d9003417 	ldw	r4,208(sp)
    4810:	d9403817 	ldw	r5,224(sp)
    4814:	1887883a 	add	r3,r3,r2
    4818:	d8801f17 	ldw	r2,124(sp)
    481c:	41000015 	stw	r4,0(r8)
    4820:	41400115 	stw	r5,4(r8)
    4824:	10800044 	addi	r2,r2,1
    4828:	d8c02015 	stw	r3,128(sp)
    482c:	d8801f15 	stw	r2,124(sp)
    4830:	010001c4 	movi	r4,7
    4834:	2082af16 	blt	r4,r2,52f4 <___svfprintf_internal_r+0x19b0>
    4838:	42000204 	addi	r8,r8,8
    483c:	d8803317 	ldw	r2,204(sp)
    4840:	143fffc4 	addi	r16,r2,-1
    4844:	043ea30e 	bge	zero,r16,42d4 <__alt_data_end+0xf80042d4>
    4848:	04400404 	movi	r17,16
    484c:	d8801f17 	ldw	r2,124(sp)
    4850:	8c00860e 	bge	r17,r16,4a6c <___svfprintf_internal_r+0x1128>
    4854:	01400074 	movhi	r5,1
    4858:	2957ad84 	addi	r5,r5,24246
    485c:	d9402c15 	stw	r5,176(sp)
    4860:	058001c4 	movi	r22,7
    4864:	dd002d17 	ldw	r20,180(sp)
    4868:	00000306 	br	4878 <___svfprintf_internal_r+0xf34>
    486c:	42000204 	addi	r8,r8,8
    4870:	843ffc04 	addi	r16,r16,-16
    4874:	8c00800e 	bge	r17,r16,4a78 <___svfprintf_internal_r+0x1134>
    4878:	18c00404 	addi	r3,r3,16
    487c:	10800044 	addi	r2,r2,1
    4880:	45400015 	stw	r21,0(r8)
    4884:	44400115 	stw	r17,4(r8)
    4888:	d8c02015 	stw	r3,128(sp)
    488c:	d8801f15 	stw	r2,124(sp)
    4890:	b0bff60e 	bge	r22,r2,486c <__alt_data_end+0xf800486c>
    4894:	d9801e04 	addi	r6,sp,120
    4898:	a00b883a 	mov	r5,r20
    489c:	9809883a 	mov	r4,r19
    48a0:	000bdc80 	call	bdc8 <__ssprint_r>
    48a4:	103d0e1e 	bne	r2,zero,3ce0 <__alt_data_end+0xf8003ce0>
    48a8:	d8c02017 	ldw	r3,128(sp)
    48ac:	d8801f17 	ldw	r2,124(sp)
    48b0:	da000404 	addi	r8,sp,16
    48b4:	003fee06 	br	4870 <__alt_data_end+0xf8004870>
    48b8:	d9403117 	ldw	r5,196(sp)
    48bc:	d8802917 	ldw	r2,164(sp)
    48c0:	28adc83a 	sub	r22,r5,r2
    48c4:	05be430e 	bge	zero,r22,41d4 <__alt_data_end+0xf80041d4>
    48c8:	07000404 	movi	fp,16
    48cc:	d8801f17 	ldw	r2,124(sp)
    48d0:	e583a20e 	bge	fp,r22,575c <___svfprintf_internal_r+0x1e18>
    48d4:	01400074 	movhi	r5,1
    48d8:	2957ad84 	addi	r5,r5,24246
    48dc:	dc403015 	stw	r17,192(sp)
    48e0:	d9402c15 	stw	r5,176(sp)
    48e4:	b023883a 	mov	r17,r22
    48e8:	050001c4 	movi	r20,7
    48ec:	902d883a 	mov	r22,r18
    48f0:	8025883a 	mov	r18,r16
    48f4:	dc002d17 	ldw	r16,180(sp)
    48f8:	00000306 	br	4908 <___svfprintf_internal_r+0xfc4>
    48fc:	8c7ffc04 	addi	r17,r17,-16
    4900:	42000204 	addi	r8,r8,8
    4904:	e440110e 	bge	fp,r17,494c <___svfprintf_internal_r+0x1008>
    4908:	18c00404 	addi	r3,r3,16
    490c:	10800044 	addi	r2,r2,1
    4910:	45400015 	stw	r21,0(r8)
    4914:	47000115 	stw	fp,4(r8)
    4918:	d8c02015 	stw	r3,128(sp)
    491c:	d8801f15 	stw	r2,124(sp)
    4920:	a0bff60e 	bge	r20,r2,48fc <__alt_data_end+0xf80048fc>
    4924:	d9801e04 	addi	r6,sp,120
    4928:	800b883a 	mov	r5,r16
    492c:	9809883a 	mov	r4,r19
    4930:	000bdc80 	call	bdc8 <__ssprint_r>
    4934:	103cea1e 	bne	r2,zero,3ce0 <__alt_data_end+0xf8003ce0>
    4938:	8c7ffc04 	addi	r17,r17,-16
    493c:	d8c02017 	ldw	r3,128(sp)
    4940:	d8801f17 	ldw	r2,124(sp)
    4944:	da000404 	addi	r8,sp,16
    4948:	e47fef16 	blt	fp,r17,4908 <__alt_data_end+0xf8004908>
    494c:	9021883a 	mov	r16,r18
    4950:	b025883a 	mov	r18,r22
    4954:	882d883a 	mov	r22,r17
    4958:	dc403017 	ldw	r17,192(sp)
    495c:	d9002c17 	ldw	r4,176(sp)
    4960:	1d87883a 	add	r3,r3,r22
    4964:	10800044 	addi	r2,r2,1
    4968:	41000015 	stw	r4,0(r8)
    496c:	45800115 	stw	r22,4(r8)
    4970:	d8c02015 	stw	r3,128(sp)
    4974:	d8801f15 	stw	r2,124(sp)
    4978:	010001c4 	movi	r4,7
    497c:	20819a16 	blt	r4,r2,4fe8 <___svfprintf_internal_r+0x16a4>
    4980:	42000204 	addi	r8,r8,8
    4984:	003e1306 	br	41d4 <__alt_data_end+0xf80041d4>
    4988:	d9403317 	ldw	r5,204(sp)
    498c:	00800044 	movi	r2,1
    4990:	18c00044 	addi	r3,r3,1
    4994:	1141710e 	bge	r2,r5,4f5c <___svfprintf_internal_r+0x1618>
    4998:	dc401f17 	ldw	r17,124(sp)
    499c:	00800044 	movi	r2,1
    49a0:	40800115 	stw	r2,4(r8)
    49a4:	8c400044 	addi	r17,r17,1
    49a8:	44000015 	stw	r16,0(r8)
    49ac:	d8c02015 	stw	r3,128(sp)
    49b0:	dc401f15 	stw	r17,124(sp)
    49b4:	008001c4 	movi	r2,7
    49b8:	14417416 	blt	r2,r17,4f8c <___svfprintf_internal_r+0x1648>
    49bc:	42000204 	addi	r8,r8,8
    49c0:	d8803817 	ldw	r2,224(sp)
    49c4:	d9003417 	ldw	r4,208(sp)
    49c8:	8c400044 	addi	r17,r17,1
    49cc:	10c7883a 	add	r3,r2,r3
    49d0:	40800115 	stw	r2,4(r8)
    49d4:	41000015 	stw	r4,0(r8)
    49d8:	d8c02015 	stw	r3,128(sp)
    49dc:	dc401f15 	stw	r17,124(sp)
    49e0:	008001c4 	movi	r2,7
    49e4:	14417216 	blt	r2,r17,4fb0 <___svfprintf_internal_r+0x166c>
    49e8:	45800204 	addi	r22,r8,8
    49ec:	d9003617 	ldw	r4,216(sp)
    49f0:	d9403717 	ldw	r5,220(sp)
    49f4:	000d883a 	mov	r6,zero
    49f8:	000f883a 	mov	r7,zero
    49fc:	d8c03d15 	stw	r3,244(sp)
    4a00:	0010eb80 	call	10eb8 <__eqdf2>
    4a04:	d8c03d17 	ldw	r3,244(sp)
    4a08:	1000b326 	beq	r2,zero,4cd8 <___svfprintf_internal_r+0x1394>
    4a0c:	d9403317 	ldw	r5,204(sp)
    4a10:	84000044 	addi	r16,r16,1
    4a14:	8c400044 	addi	r17,r17,1
    4a18:	28bfffc4 	addi	r2,r5,-1
    4a1c:	1887883a 	add	r3,r3,r2
    4a20:	b0800115 	stw	r2,4(r22)
    4a24:	b4000015 	stw	r16,0(r22)
    4a28:	d8c02015 	stw	r3,128(sp)
    4a2c:	dc401f15 	stw	r17,124(sp)
    4a30:	008001c4 	movi	r2,7
    4a34:	1440d216 	blt	r2,r17,4d80 <___svfprintf_internal_r+0x143c>
    4a38:	b5800204 	addi	r22,r22,8
    4a3c:	d9003b17 	ldw	r4,236(sp)
    4a40:	df0022c4 	addi	fp,sp,139
    4a44:	8c400044 	addi	r17,r17,1
    4a48:	20c7883a 	add	r3,r4,r3
    4a4c:	b7000015 	stw	fp,0(r22)
    4a50:	b1000115 	stw	r4,4(r22)
    4a54:	d8c02015 	stw	r3,128(sp)
    4a58:	dc401f15 	stw	r17,124(sp)
    4a5c:	008001c4 	movi	r2,7
    4a60:	14400e16 	blt	r2,r17,4a9c <___svfprintf_internal_r+0x1158>
    4a64:	b2000204 	addi	r8,r22,8
    4a68:	003e1a06 	br	42d4 <__alt_data_end+0xf80042d4>
    4a6c:	01000074 	movhi	r4,1
    4a70:	2117ad84 	addi	r4,r4,24246
    4a74:	d9002c15 	stw	r4,176(sp)
    4a78:	d9002c17 	ldw	r4,176(sp)
    4a7c:	1c07883a 	add	r3,r3,r16
    4a80:	44000115 	stw	r16,4(r8)
    4a84:	41000015 	stw	r4,0(r8)
    4a88:	10800044 	addi	r2,r2,1
    4a8c:	d8c02015 	stw	r3,128(sp)
    4a90:	d8801f15 	stw	r2,124(sp)
    4a94:	010001c4 	movi	r4,7
    4a98:	20be0d0e 	bge	r4,r2,42d0 <__alt_data_end+0xf80042d0>
    4a9c:	d9402d17 	ldw	r5,180(sp)
    4aa0:	d9801e04 	addi	r6,sp,120
    4aa4:	9809883a 	mov	r4,r19
    4aa8:	000bdc80 	call	bdc8 <__ssprint_r>
    4aac:	103c8c1e 	bne	r2,zero,3ce0 <__alt_data_end+0xf8003ce0>
    4ab0:	d8c02017 	ldw	r3,128(sp)
    4ab4:	da000404 	addi	r8,sp,16
    4ab8:	003e0606 	br	42d4 <__alt_data_end+0xf80042d4>
    4abc:	d9402d17 	ldw	r5,180(sp)
    4ac0:	d9801e04 	addi	r6,sp,120
    4ac4:	9809883a 	mov	r4,r19
    4ac8:	000bdc80 	call	bdc8 <__ssprint_r>
    4acc:	103e3d26 	beq	r2,zero,43c4 <__alt_data_end+0xf80043c4>
    4ad0:	003c8306 	br	3ce0 <__alt_data_end+0xf8003ce0>
    4ad4:	d9402d17 	ldw	r5,180(sp)
    4ad8:	d9801e04 	addi	r6,sp,120
    4adc:	9809883a 	mov	r4,r19
    4ae0:	000bdc80 	call	bdc8 <__ssprint_r>
    4ae4:	103c7e1e 	bne	r2,zero,3ce0 <__alt_data_end+0xf8003ce0>
    4ae8:	d8c02017 	ldw	r3,128(sp)
    4aec:	da000404 	addi	r8,sp,16
    4af0:	003deb06 	br	42a0 <__alt_data_end+0xf80042a0>
    4af4:	d9402d17 	ldw	r5,180(sp)
    4af8:	d9801e04 	addi	r6,sp,120
    4afc:	9809883a 	mov	r4,r19
    4b00:	000bdc80 	call	bdc8 <__ssprint_r>
    4b04:	103c761e 	bne	r2,zero,3ce0 <__alt_data_end+0xf8003ce0>
    4b08:	d8c02017 	ldw	r3,128(sp)
    4b0c:	da000404 	addi	r8,sp,16
    4b10:	003d9f06 	br	4190 <__alt_data_end+0xf8004190>
    4b14:	d9402d17 	ldw	r5,180(sp)
    4b18:	d9801e04 	addi	r6,sp,120
    4b1c:	9809883a 	mov	r4,r19
    4b20:	000bdc80 	call	bdc8 <__ssprint_r>
    4b24:	103c6e1e 	bne	r2,zero,3ce0 <__alt_data_end+0xf8003ce0>
    4b28:	d8c02017 	ldw	r3,128(sp)
    4b2c:	da000404 	addi	r8,sp,16
    4b30:	003da506 	br	41c8 <__alt_data_end+0xf80041c8>
    4b34:	d9402a17 	ldw	r5,168(sp)
    4b38:	d8002785 	stb	zero,158(sp)
    4b3c:	283f0816 	blt	r5,zero,4760 <__alt_data_end+0xf8004760>
    4b40:	00ffdfc4 	movi	r3,-129
    4b44:	a584b03a 	or	r2,r20,r22
    4b48:	90e4703a 	and	r18,r18,r3
    4b4c:	103c5126 	beq	r2,zero,3c94 <__alt_data_end+0xf8003c94>
    4b50:	0039883a 	mov	fp,zero
    4b54:	003e5a06 	br	44c0 <__alt_data_end+0xf80044c0>
    4b58:	9080040c 	andi	r2,r18,16
    4b5c:	10013d26 	beq	r2,zero,5054 <___svfprintf_internal_r+0x1710>
    4b60:	d8c02e17 	ldw	r3,184(sp)
    4b64:	d9002a17 	ldw	r4,168(sp)
    4b68:	d8002785 	stb	zero,158(sp)
    4b6c:	18800104 	addi	r2,r3,4
    4b70:	1d000017 	ldw	r20,0(r3)
    4b74:	002d883a 	mov	r22,zero
    4b78:	20013f16 	blt	r4,zero,5078 <___svfprintf_internal_r+0x1734>
    4b7c:	00ffdfc4 	movi	r3,-129
    4b80:	d8802e15 	stw	r2,184(sp)
    4b84:	90e4703a 	and	r18,r18,r3
    4b88:	a03d0926 	beq	r20,zero,3fb0 <__alt_data_end+0xf8003fb0>
    4b8c:	0039883a 	mov	fp,zero
    4b90:	003d0c06 	br	3fc4 <__alt_data_end+0xf8003fc4>
    4b94:	dc402617 	ldw	r17,152(sp)
    4b98:	0441830e 	bge	zero,r17,51a8 <___svfprintf_internal_r+0x1864>
    4b9c:	dc403217 	ldw	r17,200(sp)
    4ba0:	d8803317 	ldw	r2,204(sp)
    4ba4:	1440010e 	bge	r2,r17,4bac <___svfprintf_internal_r+0x1268>
    4ba8:	1023883a 	mov	r17,r2
    4bac:	04400a0e 	bge	zero,r17,4bd8 <___svfprintf_internal_r+0x1294>
    4bb0:	d8801f17 	ldw	r2,124(sp)
    4bb4:	1c47883a 	add	r3,r3,r17
    4bb8:	44000015 	stw	r16,0(r8)
    4bbc:	10800044 	addi	r2,r2,1
    4bc0:	44400115 	stw	r17,4(r8)
    4bc4:	d8c02015 	stw	r3,128(sp)
    4bc8:	d8801f15 	stw	r2,124(sp)
    4bcc:	010001c4 	movi	r4,7
    4bd0:	20827516 	blt	r4,r2,55a8 <___svfprintf_internal_r+0x1c64>
    4bd4:	42000204 	addi	r8,r8,8
    4bd8:	88027b16 	blt	r17,zero,55c8 <___svfprintf_internal_r+0x1c84>
    4bdc:	d9003217 	ldw	r4,200(sp)
    4be0:	2463c83a 	sub	r17,r4,r17
    4be4:	0440990e 	bge	zero,r17,4e4c <___svfprintf_internal_r+0x1508>
    4be8:	05800404 	movi	r22,16
    4bec:	d8801f17 	ldw	r2,124(sp)
    4bf0:	b441530e 	bge	r22,r17,5140 <___svfprintf_internal_r+0x17fc>
    4bf4:	01000074 	movhi	r4,1
    4bf8:	2117ad84 	addi	r4,r4,24246
    4bfc:	d9002c15 	stw	r4,176(sp)
    4c00:	070001c4 	movi	fp,7
    4c04:	dd002d17 	ldw	r20,180(sp)
    4c08:	00000306 	br	4c18 <___svfprintf_internal_r+0x12d4>
    4c0c:	42000204 	addi	r8,r8,8
    4c10:	8c7ffc04 	addi	r17,r17,-16
    4c14:	b4414d0e 	bge	r22,r17,514c <___svfprintf_internal_r+0x1808>
    4c18:	18c00404 	addi	r3,r3,16
    4c1c:	10800044 	addi	r2,r2,1
    4c20:	45400015 	stw	r21,0(r8)
    4c24:	45800115 	stw	r22,4(r8)
    4c28:	d8c02015 	stw	r3,128(sp)
    4c2c:	d8801f15 	stw	r2,124(sp)
    4c30:	e0bff60e 	bge	fp,r2,4c0c <__alt_data_end+0xf8004c0c>
    4c34:	d9801e04 	addi	r6,sp,120
    4c38:	a00b883a 	mov	r5,r20
    4c3c:	9809883a 	mov	r4,r19
    4c40:	000bdc80 	call	bdc8 <__ssprint_r>
    4c44:	103c261e 	bne	r2,zero,3ce0 <__alt_data_end+0xf8003ce0>
    4c48:	d8c02017 	ldw	r3,128(sp)
    4c4c:	d8801f17 	ldw	r2,124(sp)
    4c50:	da000404 	addi	r8,sp,16
    4c54:	003fee06 	br	4c10 <__alt_data_end+0xf8004c10>
    4c58:	d9402d17 	ldw	r5,180(sp)
    4c5c:	d9801e04 	addi	r6,sp,120
    4c60:	9809883a 	mov	r4,r19
    4c64:	000bdc80 	call	bdc8 <__ssprint_r>
    4c68:	103c1d1e 	bne	r2,zero,3ce0 <__alt_data_end+0xf8003ce0>
    4c6c:	d8c02017 	ldw	r3,128(sp)
    4c70:	df002787 	ldb	fp,158(sp)
    4c74:	da000404 	addi	r8,sp,16
    4c78:	003d3806 	br	415c <__alt_data_end+0xf800415c>
    4c7c:	9080040c 	andi	r2,r18,16
    4c80:	10005c26 	beq	r2,zero,4df4 <___svfprintf_internal_r+0x14b0>
    4c84:	d8c02e17 	ldw	r3,184(sp)
    4c88:	d9002a17 	ldw	r4,168(sp)
    4c8c:	d8002785 	stb	zero,158(sp)
    4c90:	18800104 	addi	r2,r3,4
    4c94:	1d000017 	ldw	r20,0(r3)
    4c98:	002d883a 	mov	r22,zero
    4c9c:	20005e16 	blt	r4,zero,4e18 <___svfprintf_internal_r+0x14d4>
    4ca0:	00ffdfc4 	movi	r3,-129
    4ca4:	d8802e15 	stw	r2,184(sp)
    4ca8:	90e4703a 	and	r18,r18,r3
    4cac:	0039883a 	mov	fp,zero
    4cb0:	a03ddf26 	beq	r20,zero,4430 <__alt_data_end+0xf8004430>
    4cb4:	00800244 	movi	r2,9
    4cb8:	153c8e36 	bltu	r2,r20,3ef4 <__alt_data_end+0xf8003ef4>
    4cbc:	a5000c04 	addi	r20,r20,48
    4cc0:	dc001dc4 	addi	r16,sp,119
    4cc4:	dd001dc5 	stb	r20,119(sp)
    4cc8:	d8c02817 	ldw	r3,160(sp)
    4ccc:	1c07c83a 	sub	r3,r3,r16
    4cd0:	d8c02b15 	stw	r3,172(sp)
    4cd4:	003cd306 	br	4024 <__alt_data_end+0xf8004024>
    4cd8:	d8803317 	ldw	r2,204(sp)
    4cdc:	143fffc4 	addi	r16,r2,-1
    4ce0:	043f560e 	bge	zero,r16,4a3c <__alt_data_end+0xf8004a3c>
    4ce4:	07000404 	movi	fp,16
    4ce8:	e403530e 	bge	fp,r16,5a38 <___svfprintf_internal_r+0x20f4>
    4cec:	01400074 	movhi	r5,1
    4cf0:	2957ad84 	addi	r5,r5,24246
    4cf4:	d9402c15 	stw	r5,176(sp)
    4cf8:	01c001c4 	movi	r7,7
    4cfc:	dd002d17 	ldw	r20,180(sp)
    4d00:	00000306 	br	4d10 <___svfprintf_internal_r+0x13cc>
    4d04:	843ffc04 	addi	r16,r16,-16
    4d08:	b5800204 	addi	r22,r22,8
    4d0c:	e400130e 	bge	fp,r16,4d5c <___svfprintf_internal_r+0x1418>
    4d10:	18c00404 	addi	r3,r3,16
    4d14:	8c400044 	addi	r17,r17,1
    4d18:	b5400015 	stw	r21,0(r22)
    4d1c:	b7000115 	stw	fp,4(r22)
    4d20:	d8c02015 	stw	r3,128(sp)
    4d24:	dc401f15 	stw	r17,124(sp)
    4d28:	3c7ff60e 	bge	r7,r17,4d04 <__alt_data_end+0xf8004d04>
    4d2c:	d9801e04 	addi	r6,sp,120
    4d30:	a00b883a 	mov	r5,r20
    4d34:	9809883a 	mov	r4,r19
    4d38:	d9c03d15 	stw	r7,244(sp)
    4d3c:	000bdc80 	call	bdc8 <__ssprint_r>
    4d40:	d9c03d17 	ldw	r7,244(sp)
    4d44:	103be61e 	bne	r2,zero,3ce0 <__alt_data_end+0xf8003ce0>
    4d48:	843ffc04 	addi	r16,r16,-16
    4d4c:	d8c02017 	ldw	r3,128(sp)
    4d50:	dc401f17 	ldw	r17,124(sp)
    4d54:	dd800404 	addi	r22,sp,16
    4d58:	e43fed16 	blt	fp,r16,4d10 <__alt_data_end+0xf8004d10>
    4d5c:	d8802c17 	ldw	r2,176(sp)
    4d60:	1c07883a 	add	r3,r3,r16
    4d64:	8c400044 	addi	r17,r17,1
    4d68:	b0800015 	stw	r2,0(r22)
    4d6c:	b4000115 	stw	r16,4(r22)
    4d70:	d8c02015 	stw	r3,128(sp)
    4d74:	dc401f15 	stw	r17,124(sp)
    4d78:	008001c4 	movi	r2,7
    4d7c:	147f2e0e 	bge	r2,r17,4a38 <__alt_data_end+0xf8004a38>
    4d80:	d9402d17 	ldw	r5,180(sp)
    4d84:	d9801e04 	addi	r6,sp,120
    4d88:	9809883a 	mov	r4,r19
    4d8c:	000bdc80 	call	bdc8 <__ssprint_r>
    4d90:	103bd31e 	bne	r2,zero,3ce0 <__alt_data_end+0xf8003ce0>
    4d94:	d8c02017 	ldw	r3,128(sp)
    4d98:	dc401f17 	ldw	r17,124(sp)
    4d9c:	dd800404 	addi	r22,sp,16
    4da0:	003f2606 	br	4a3c <__alt_data_end+0xf8004a3c>
    4da4:	9080040c 	andi	r2,r18,16
    4da8:	1000c326 	beq	r2,zero,50b8 <___svfprintf_internal_r+0x1774>
    4dac:	d9402e17 	ldw	r5,184(sp)
    4db0:	2d000017 	ldw	r20,0(r5)
    4db4:	29400104 	addi	r5,r5,4
    4db8:	d9402e15 	stw	r5,184(sp)
    4dbc:	a02dd7fa 	srai	r22,r20,31
    4dc0:	b005883a 	mov	r2,r22
    4dc4:	103c430e 	bge	r2,zero,3ed4 <__alt_data_end+0xf8003ed4>
    4dc8:	d9402a17 	ldw	r5,168(sp)
    4dcc:	0529c83a 	sub	r20,zero,r20
    4dd0:	07000b44 	movi	fp,45
    4dd4:	a004c03a 	cmpne	r2,r20,zero
    4dd8:	05adc83a 	sub	r22,zero,r22
    4ddc:	df002785 	stb	fp,158(sp)
    4de0:	b0adc83a 	sub	r22,r22,r2
    4de4:	28022e16 	blt	r5,zero,56a0 <___svfprintf_internal_r+0x1d5c>
    4de8:	00bfdfc4 	movi	r2,-129
    4dec:	90a4703a 	and	r18,r18,r2
    4df0:	003c3f06 	br	3ef0 <__alt_data_end+0xf8003ef0>
    4df4:	9080100c 	andi	r2,r18,64
    4df8:	d8002785 	stb	zero,158(sp)
    4dfc:	10012526 	beq	r2,zero,5294 <___svfprintf_internal_r+0x1950>
    4e00:	d9402e17 	ldw	r5,184(sp)
    4e04:	d8c02a17 	ldw	r3,168(sp)
    4e08:	002d883a 	mov	r22,zero
    4e0c:	28800104 	addi	r2,r5,4
    4e10:	2d00000b 	ldhu	r20,0(r5)
    4e14:	183fa20e 	bge	r3,zero,4ca0 <__alt_data_end+0xf8004ca0>
    4e18:	d8802e15 	stw	r2,184(sp)
    4e1c:	0039883a 	mov	fp,zero
    4e20:	a584b03a 	or	r2,r20,r22
    4e24:	103c321e 	bne	r2,zero,3ef0 <__alt_data_end+0xf8003ef0>
    4e28:	00800044 	movi	r2,1
    4e2c:	003e5006 	br	4770 <__alt_data_end+0xf8004770>
    4e30:	d9402d17 	ldw	r5,180(sp)
    4e34:	d9801e04 	addi	r6,sp,120
    4e38:	9809883a 	mov	r4,r19
    4e3c:	000bdc80 	call	bdc8 <__ssprint_r>
    4e40:	103ba71e 	bne	r2,zero,3ce0 <__alt_data_end+0xf8003ce0>
    4e44:	d8c02017 	ldw	r3,128(sp)
    4e48:	da000404 	addi	r8,sp,16
    4e4c:	d9003217 	ldw	r4,200(sp)
    4e50:	d8802617 	ldw	r2,152(sp)
    4e54:	d9403317 	ldw	r5,204(sp)
    4e58:	8123883a 	add	r17,r16,r4
    4e5c:	11400216 	blt	r2,r5,4e68 <___svfprintf_internal_r+0x1524>
    4e60:	9100004c 	andi	r4,r18,1
    4e64:	20000d26 	beq	r4,zero,4e9c <___svfprintf_internal_r+0x1558>
    4e68:	d9003817 	ldw	r4,224(sp)
    4e6c:	d9403417 	ldw	r5,208(sp)
    4e70:	1907883a 	add	r3,r3,r4
    4e74:	d9001f17 	ldw	r4,124(sp)
    4e78:	41400015 	stw	r5,0(r8)
    4e7c:	d9403817 	ldw	r5,224(sp)
    4e80:	21000044 	addi	r4,r4,1
    4e84:	d8c02015 	stw	r3,128(sp)
    4e88:	41400115 	stw	r5,4(r8)
    4e8c:	d9001f15 	stw	r4,124(sp)
    4e90:	014001c4 	movi	r5,7
    4e94:	2901dc16 	blt	r5,r4,5608 <___svfprintf_internal_r+0x1cc4>
    4e98:	42000204 	addi	r8,r8,8
    4e9c:	d9003317 	ldw	r4,204(sp)
    4ea0:	8121883a 	add	r16,r16,r4
    4ea4:	2085c83a 	sub	r2,r4,r2
    4ea8:	8461c83a 	sub	r16,r16,r17
    4eac:	1400010e 	bge	r2,r16,4eb4 <___svfprintf_internal_r+0x1570>
    4eb0:	1021883a 	mov	r16,r2
    4eb4:	04000a0e 	bge	zero,r16,4ee0 <___svfprintf_internal_r+0x159c>
    4eb8:	d9001f17 	ldw	r4,124(sp)
    4ebc:	1c07883a 	add	r3,r3,r16
    4ec0:	44400015 	stw	r17,0(r8)
    4ec4:	21000044 	addi	r4,r4,1
    4ec8:	44000115 	stw	r16,4(r8)
    4ecc:	d8c02015 	stw	r3,128(sp)
    4ed0:	d9001f15 	stw	r4,124(sp)
    4ed4:	014001c4 	movi	r5,7
    4ed8:	2901e616 	blt	r5,r4,5674 <___svfprintf_internal_r+0x1d30>
    4edc:	42000204 	addi	r8,r8,8
    4ee0:	8001f616 	blt	r16,zero,56bc <___svfprintf_internal_r+0x1d78>
    4ee4:	1421c83a 	sub	r16,r2,r16
    4ee8:	043cfa0e 	bge	zero,r16,42d4 <__alt_data_end+0xf80042d4>
    4eec:	04400404 	movi	r17,16
    4ef0:	d8801f17 	ldw	r2,124(sp)
    4ef4:	8c3edd0e 	bge	r17,r16,4a6c <__alt_data_end+0xf8004a6c>
    4ef8:	01400074 	movhi	r5,1
    4efc:	2957ad84 	addi	r5,r5,24246
    4f00:	d9402c15 	stw	r5,176(sp)
    4f04:	058001c4 	movi	r22,7
    4f08:	dd002d17 	ldw	r20,180(sp)
    4f0c:	00000306 	br	4f1c <___svfprintf_internal_r+0x15d8>
    4f10:	42000204 	addi	r8,r8,8
    4f14:	843ffc04 	addi	r16,r16,-16
    4f18:	8c3ed70e 	bge	r17,r16,4a78 <__alt_data_end+0xf8004a78>
    4f1c:	18c00404 	addi	r3,r3,16
    4f20:	10800044 	addi	r2,r2,1
    4f24:	45400015 	stw	r21,0(r8)
    4f28:	44400115 	stw	r17,4(r8)
    4f2c:	d8c02015 	stw	r3,128(sp)
    4f30:	d8801f15 	stw	r2,124(sp)
    4f34:	b0bff60e 	bge	r22,r2,4f10 <__alt_data_end+0xf8004f10>
    4f38:	d9801e04 	addi	r6,sp,120
    4f3c:	a00b883a 	mov	r5,r20
    4f40:	9809883a 	mov	r4,r19
    4f44:	000bdc80 	call	bdc8 <__ssprint_r>
    4f48:	103b651e 	bne	r2,zero,3ce0 <__alt_data_end+0xf8003ce0>
    4f4c:	d8c02017 	ldw	r3,128(sp)
    4f50:	d8801f17 	ldw	r2,124(sp)
    4f54:	da000404 	addi	r8,sp,16
    4f58:	003fee06 	br	4f14 <__alt_data_end+0xf8004f14>
    4f5c:	9088703a 	and	r4,r18,r2
    4f60:	203e8d1e 	bne	r4,zero,4998 <__alt_data_end+0xf8004998>
    4f64:	dc401f17 	ldw	r17,124(sp)
    4f68:	40800115 	stw	r2,4(r8)
    4f6c:	44000015 	stw	r16,0(r8)
    4f70:	8c400044 	addi	r17,r17,1
    4f74:	d8c02015 	stw	r3,128(sp)
    4f78:	dc401f15 	stw	r17,124(sp)
    4f7c:	008001c4 	movi	r2,7
    4f80:	147f7f16 	blt	r2,r17,4d80 <__alt_data_end+0xf8004d80>
    4f84:	45800204 	addi	r22,r8,8
    4f88:	003eac06 	br	4a3c <__alt_data_end+0xf8004a3c>
    4f8c:	d9402d17 	ldw	r5,180(sp)
    4f90:	d9801e04 	addi	r6,sp,120
    4f94:	9809883a 	mov	r4,r19
    4f98:	000bdc80 	call	bdc8 <__ssprint_r>
    4f9c:	103b501e 	bne	r2,zero,3ce0 <__alt_data_end+0xf8003ce0>
    4fa0:	d8c02017 	ldw	r3,128(sp)
    4fa4:	dc401f17 	ldw	r17,124(sp)
    4fa8:	da000404 	addi	r8,sp,16
    4fac:	003e8406 	br	49c0 <__alt_data_end+0xf80049c0>
    4fb0:	d9402d17 	ldw	r5,180(sp)
    4fb4:	d9801e04 	addi	r6,sp,120
    4fb8:	9809883a 	mov	r4,r19
    4fbc:	000bdc80 	call	bdc8 <__ssprint_r>
    4fc0:	103b471e 	bne	r2,zero,3ce0 <__alt_data_end+0xf8003ce0>
    4fc4:	d8c02017 	ldw	r3,128(sp)
    4fc8:	dc401f17 	ldw	r17,124(sp)
    4fcc:	dd800404 	addi	r22,sp,16
    4fd0:	003e8606 	br	49ec <__alt_data_end+0xf80049ec>
    4fd4:	0029883a 	mov	r20,zero
    4fd8:	a5000c04 	addi	r20,r20,48
    4fdc:	dc001dc4 	addi	r16,sp,119
    4fe0:	dd001dc5 	stb	r20,119(sp)
    4fe4:	003f3806 	br	4cc8 <__alt_data_end+0xf8004cc8>
    4fe8:	d9402d17 	ldw	r5,180(sp)
    4fec:	d9801e04 	addi	r6,sp,120
    4ff0:	9809883a 	mov	r4,r19
    4ff4:	000bdc80 	call	bdc8 <__ssprint_r>
    4ff8:	103b391e 	bne	r2,zero,3ce0 <__alt_data_end+0xf8003ce0>
    4ffc:	d8c02017 	ldw	r3,128(sp)
    5000:	da000404 	addi	r8,sp,16
    5004:	003c7306 	br	41d4 <__alt_data_end+0xf80041d4>
    5008:	d9003617 	ldw	r4,216(sp)
    500c:	d9403717 	ldw	r5,220(sp)
    5010:	da003e15 	stw	r8,248(sp)
    5014:	000bc780 	call	bc78 <__fpclassifyd>
    5018:	da003e17 	ldw	r8,248(sp)
    501c:	1000bd1e 	bne	r2,zero,5314 <___svfprintf_internal_r+0x19d0>
    5020:	008011c4 	movi	r2,71
    5024:	14411e0e 	bge	r2,r17,54a0 <___svfprintf_internal_r+0x1b5c>
    5028:	04000074 	movhi	r16,1
    502c:	8417a004 	addi	r16,r16,24192
    5030:	00c000c4 	movi	r3,3
    5034:	00bfdfc4 	movi	r2,-129
    5038:	d8c02915 	stw	r3,164(sp)
    503c:	90a4703a 	and	r18,r18,r2
    5040:	df002783 	ldbu	fp,158(sp)
    5044:	d8c02b15 	stw	r3,172(sp)
    5048:	d8002a15 	stw	zero,168(sp)
    504c:	d8003215 	stw	zero,200(sp)
    5050:	003bfa06 	br	403c <__alt_data_end+0xf800403c>
    5054:	9080100c 	andi	r2,r18,64
    5058:	d8002785 	stb	zero,158(sp)
    505c:	10009426 	beq	r2,zero,52b0 <___svfprintf_internal_r+0x196c>
    5060:	d9402e17 	ldw	r5,184(sp)
    5064:	d8c02a17 	ldw	r3,168(sp)
    5068:	002d883a 	mov	r22,zero
    506c:	28800104 	addi	r2,r5,4
    5070:	2d00000b 	ldhu	r20,0(r5)
    5074:	183ec10e 	bge	r3,zero,4b7c <__alt_data_end+0xf8004b7c>
    5078:	a586b03a 	or	r3,r20,r22
    507c:	d8802e15 	stw	r2,184(sp)
    5080:	183ec21e 	bne	r3,zero,4b8c <__alt_data_end+0xf8004b8c>
    5084:	0039883a 	mov	fp,zero
    5088:	0005883a 	mov	r2,zero
    508c:	003db806 	br	4770 <__alt_data_end+0xf8004770>
    5090:	d8c02e17 	ldw	r3,184(sp)
    5094:	d9002e17 	ldw	r4,184(sp)
    5098:	d9402e17 	ldw	r5,184(sp)
    509c:	18c00017 	ldw	r3,0(r3)
    50a0:	21000117 	ldw	r4,4(r4)
    50a4:	29400204 	addi	r5,r5,8
    50a8:	d8c03615 	stw	r3,216(sp)
    50ac:	d9003715 	stw	r4,220(sp)
    50b0:	d9402e15 	stw	r5,184(sp)
    50b4:	003b5a06 	br	3e20 <__alt_data_end+0xf8003e20>
    50b8:	9080100c 	andi	r2,r18,64
    50bc:	10010726 	beq	r2,zero,54dc <___svfprintf_internal_r+0x1b98>
    50c0:	d8802e17 	ldw	r2,184(sp)
    50c4:	1500000f 	ldh	r20,0(r2)
    50c8:	10800104 	addi	r2,r2,4
    50cc:	d8802e15 	stw	r2,184(sp)
    50d0:	a02dd7fa 	srai	r22,r20,31
    50d4:	b005883a 	mov	r2,r22
    50d8:	003b7d06 	br	3ed0 <__alt_data_end+0xf8003ed0>
    50dc:	9080100c 	andi	r2,r18,64
    50e0:	10010526 	beq	r2,zero,54f8 <___svfprintf_internal_r+0x1bb4>
    50e4:	d8c02e17 	ldw	r3,184(sp)
    50e8:	002d883a 	mov	r22,zero
    50ec:	1d00000b 	ldhu	r20,0(r3)
    50f0:	18c00104 	addi	r3,r3,4
    50f4:	d8c02e15 	stw	r3,184(sp)
    50f8:	003ce206 	br	4484 <__alt_data_end+0xf8004484>
    50fc:	bc400007 	ldb	r17,0(r23)
    5100:	003a6506 	br	3a98 <__alt_data_end+0xf8003a98>
    5104:	9080040c 	andi	r2,r18,16
    5108:	10010126 	beq	r2,zero,5510 <___svfprintf_internal_r+0x1bcc>
    510c:	d8c02e17 	ldw	r3,184(sp)
    5110:	d9002f17 	ldw	r4,188(sp)
    5114:	18800017 	ldw	r2,0(r3)
    5118:	18c00104 	addi	r3,r3,4
    511c:	d8c02e15 	stw	r3,184(sp)
    5120:	11000015 	stw	r4,0(r2)
    5124:	003a3206 	br	39f0 <__alt_data_end+0xf80039f0>
    5128:	d9002a17 	ldw	r4,168(sp)
    512c:	d8002785 	stb	zero,158(sp)
    5130:	203d8d16 	blt	r4,zero,4768 <__alt_data_end+0xf8004768>
    5134:	00bfdfc4 	movi	r2,-129
    5138:	90a4703a 	and	r18,r18,r2
    513c:	003ad506 	br	3c94 <__alt_data_end+0xf8003c94>
    5140:	01400074 	movhi	r5,1
    5144:	2957ad84 	addi	r5,r5,24246
    5148:	d9402c15 	stw	r5,176(sp)
    514c:	d9402c17 	ldw	r5,176(sp)
    5150:	1c47883a 	add	r3,r3,r17
    5154:	10800044 	addi	r2,r2,1
    5158:	41400015 	stw	r5,0(r8)
    515c:	44400115 	stw	r17,4(r8)
    5160:	d8c02015 	stw	r3,128(sp)
    5164:	d8801f15 	stw	r2,124(sp)
    5168:	010001c4 	movi	r4,7
    516c:	20bf3016 	blt	r4,r2,4e30 <__alt_data_end+0xf8004e30>
    5170:	42000204 	addi	r8,r8,8
    5174:	003f3506 	br	4e4c <__alt_data_end+0xf8004e4c>
    5178:	01000074 	movhi	r4,1
    517c:	2117ad84 	addi	r4,r4,24246
    5180:	d9002c15 	stw	r4,176(sp)
    5184:	003c3c06 	br	4278 <__alt_data_end+0xf8004278>
    5188:	d9402d17 	ldw	r5,180(sp)
    518c:	d9801e04 	addi	r6,sp,120
    5190:	9809883a 	mov	r4,r19
    5194:	000bdc80 	call	bdc8 <__ssprint_r>
    5198:	103ad11e 	bne	r2,zero,3ce0 <__alt_data_end+0xf8003ce0>
    519c:	d8c02017 	ldw	r3,128(sp)
    51a0:	da000404 	addi	r8,sp,16
    51a4:	003d9306 	br	47f4 <__alt_data_end+0xf80047f4>
    51a8:	d8801f17 	ldw	r2,124(sp)
    51ac:	01400074 	movhi	r5,1
    51b0:	01000044 	movi	r4,1
    51b4:	18c00044 	addi	r3,r3,1
    51b8:	10800044 	addi	r2,r2,1
    51bc:	2957ad04 	addi	r5,r5,24244
    51c0:	41000115 	stw	r4,4(r8)
    51c4:	41400015 	stw	r5,0(r8)
    51c8:	d8c02015 	stw	r3,128(sp)
    51cc:	d8801f15 	stw	r2,124(sp)
    51d0:	010001c4 	movi	r4,7
    51d4:	2080b516 	blt	r4,r2,54ac <___svfprintf_internal_r+0x1b68>
    51d8:	42000204 	addi	r8,r8,8
    51dc:	8800041e 	bne	r17,zero,51f0 <___svfprintf_internal_r+0x18ac>
    51e0:	d8803317 	ldw	r2,204(sp)
    51e4:	1000021e 	bne	r2,zero,51f0 <___svfprintf_internal_r+0x18ac>
    51e8:	9080004c 	andi	r2,r18,1
    51ec:	103c3926 	beq	r2,zero,42d4 <__alt_data_end+0xf80042d4>
    51f0:	d9003817 	ldw	r4,224(sp)
    51f4:	d8801f17 	ldw	r2,124(sp)
    51f8:	d9403417 	ldw	r5,208(sp)
    51fc:	20c7883a 	add	r3,r4,r3
    5200:	10800044 	addi	r2,r2,1
    5204:	41000115 	stw	r4,4(r8)
    5208:	41400015 	stw	r5,0(r8)
    520c:	d8c02015 	stw	r3,128(sp)
    5210:	d8801f15 	stw	r2,124(sp)
    5214:	010001c4 	movi	r4,7
    5218:	20818016 	blt	r4,r2,581c <___svfprintf_internal_r+0x1ed8>
    521c:	42000204 	addi	r8,r8,8
    5220:	0463c83a 	sub	r17,zero,r17
    5224:	0440cb0e 	bge	zero,r17,5554 <___svfprintf_internal_r+0x1c10>
    5228:	05800404 	movi	r22,16
    522c:	b440e80e 	bge	r22,r17,55d0 <___svfprintf_internal_r+0x1c8c>
    5230:	01400074 	movhi	r5,1
    5234:	2957ad84 	addi	r5,r5,24246
    5238:	d9402c15 	stw	r5,176(sp)
    523c:	070001c4 	movi	fp,7
    5240:	dd002d17 	ldw	r20,180(sp)
    5244:	00000306 	br	5254 <___svfprintf_internal_r+0x1910>
    5248:	42000204 	addi	r8,r8,8
    524c:	8c7ffc04 	addi	r17,r17,-16
    5250:	b440e20e 	bge	r22,r17,55dc <___svfprintf_internal_r+0x1c98>
    5254:	18c00404 	addi	r3,r3,16
    5258:	10800044 	addi	r2,r2,1
    525c:	45400015 	stw	r21,0(r8)
    5260:	45800115 	stw	r22,4(r8)
    5264:	d8c02015 	stw	r3,128(sp)
    5268:	d8801f15 	stw	r2,124(sp)
    526c:	e0bff60e 	bge	fp,r2,5248 <__alt_data_end+0xf8005248>
    5270:	d9801e04 	addi	r6,sp,120
    5274:	a00b883a 	mov	r5,r20
    5278:	9809883a 	mov	r4,r19
    527c:	000bdc80 	call	bdc8 <__ssprint_r>
    5280:	103a971e 	bne	r2,zero,3ce0 <__alt_data_end+0xf8003ce0>
    5284:	d8c02017 	ldw	r3,128(sp)
    5288:	d8801f17 	ldw	r2,124(sp)
    528c:	da000404 	addi	r8,sp,16
    5290:	003fee06 	br	524c <__alt_data_end+0xf800524c>
    5294:	d9002e17 	ldw	r4,184(sp)
    5298:	d9402a17 	ldw	r5,168(sp)
    529c:	002d883a 	mov	r22,zero
    52a0:	20800104 	addi	r2,r4,4
    52a4:	25000017 	ldw	r20,0(r4)
    52a8:	283e7d0e 	bge	r5,zero,4ca0 <__alt_data_end+0xf8004ca0>
    52ac:	003eda06 	br	4e18 <__alt_data_end+0xf8004e18>
    52b0:	d9002e17 	ldw	r4,184(sp)
    52b4:	d9402a17 	ldw	r5,168(sp)
    52b8:	002d883a 	mov	r22,zero
    52bc:	20800104 	addi	r2,r4,4
    52c0:	25000017 	ldw	r20,0(r4)
    52c4:	283e2d0e 	bge	r5,zero,4b7c <__alt_data_end+0xf8004b7c>
    52c8:	003f6b06 	br	5078 <__alt_data_end+0xf8005078>
    52cc:	d8c02e15 	stw	r3,184(sp)
    52d0:	0039883a 	mov	fp,zero
    52d4:	003ed206 	br	4e20 <__alt_data_end+0xf8004e20>
    52d8:	bc400043 	ldbu	r17,1(r23)
    52dc:	84000814 	ori	r16,r16,32
    52e0:	bdc00044 	addi	r23,r23,1
    52e4:	8c403fcc 	andi	r17,r17,255
    52e8:	8c40201c 	xori	r17,r17,128
    52ec:	8c7fe004 	addi	r17,r17,-128
    52f0:	0039e906 	br	3a98 <__alt_data_end+0xf8003a98>
    52f4:	d9402d17 	ldw	r5,180(sp)
    52f8:	d9801e04 	addi	r6,sp,120
    52fc:	9809883a 	mov	r4,r19
    5300:	000bdc80 	call	bdc8 <__ssprint_r>
    5304:	103a761e 	bne	r2,zero,3ce0 <__alt_data_end+0xf8003ce0>
    5308:	d8c02017 	ldw	r3,128(sp)
    530c:	da000404 	addi	r8,sp,16
    5310:	003d4a06 	br	483c <__alt_data_end+0xf800483c>
    5314:	d9002a17 	ldw	r4,168(sp)
    5318:	05bff7c4 	movi	r22,-33
    531c:	00bfffc4 	movi	r2,-1
    5320:	8dac703a 	and	r22,r17,r22
    5324:	20806a26 	beq	r4,r2,54d0 <___svfprintf_internal_r+0x1b8c>
    5328:	008011c4 	movi	r2,71
    532c:	b0813726 	beq	r22,r2,580c <___svfprintf_internal_r+0x1ec8>
    5330:	d9003717 	ldw	r4,220(sp)
    5334:	90c04014 	ori	r3,r18,256
    5338:	d8c02c15 	stw	r3,176(sp)
    533c:	20015d16 	blt	r4,zero,58b4 <___svfprintf_internal_r+0x1f70>
    5340:	dd003717 	ldw	r20,220(sp)
    5344:	d8002905 	stb	zero,164(sp)
    5348:	00801984 	movi	r2,102
    534c:	88814026 	beq	r17,r2,5850 <___svfprintf_internal_r+0x1f0c>
    5350:	00801184 	movi	r2,70
    5354:	88817126 	beq	r17,r2,591c <___svfprintf_internal_r+0x1fd8>
    5358:	00801144 	movi	r2,69
    535c:	b0816226 	beq	r22,r2,58e8 <___svfprintf_internal_r+0x1fa4>
    5360:	d8c02a17 	ldw	r3,168(sp)
    5364:	d8802104 	addi	r2,sp,132
    5368:	d8800315 	stw	r2,12(sp)
    536c:	d9403617 	ldw	r5,216(sp)
    5370:	d8802504 	addi	r2,sp,148
    5374:	d8800215 	stw	r2,8(sp)
    5378:	d8802604 	addi	r2,sp,152
    537c:	d8c00015 	stw	r3,0(sp)
    5380:	d8800115 	stw	r2,4(sp)
    5384:	01c00084 	movi	r7,2
    5388:	a00d883a 	mov	r6,r20
    538c:	9809883a 	mov	r4,r19
    5390:	d8c03d15 	stw	r3,244(sp)
    5394:	da003e15 	stw	r8,248(sp)
    5398:	00083e40 	call	83e4 <_dtoa_r>
    539c:	1021883a 	mov	r16,r2
    53a0:	008019c4 	movi	r2,103
    53a4:	d8c03d17 	ldw	r3,244(sp)
    53a8:	da003e17 	ldw	r8,248(sp)
    53ac:	8880e726 	beq	r17,r2,574c <___svfprintf_internal_r+0x1e08>
    53b0:	008011c4 	movi	r2,71
    53b4:	8880d426 	beq	r17,r2,5708 <___svfprintf_internal_r+0x1dc4>
    53b8:	80f9883a 	add	fp,r16,r3
    53bc:	d9003617 	ldw	r4,216(sp)
    53c0:	000d883a 	mov	r6,zero
    53c4:	000f883a 	mov	r7,zero
    53c8:	a00b883a 	mov	r5,r20
    53cc:	da003e15 	stw	r8,248(sp)
    53d0:	0010eb80 	call	10eb8 <__eqdf2>
    53d4:	da003e17 	ldw	r8,248(sp)
    53d8:	1000e426 	beq	r2,zero,576c <___svfprintf_internal_r+0x1e28>
    53dc:	d8802117 	ldw	r2,132(sp)
    53e0:	1700062e 	bgeu	r2,fp,53fc <___svfprintf_internal_r+0x1ab8>
    53e4:	01000c04 	movi	r4,48
    53e8:	10c00044 	addi	r3,r2,1
    53ec:	d8c02115 	stw	r3,132(sp)
    53f0:	11000005 	stb	r4,0(r2)
    53f4:	d8802117 	ldw	r2,132(sp)
    53f8:	173ffb36 	bltu	r2,fp,53e8 <__alt_data_end+0xf80053e8>
    53fc:	1405c83a 	sub	r2,r2,r16
    5400:	d8803315 	stw	r2,204(sp)
    5404:	008011c4 	movi	r2,71
    5408:	b080c526 	beq	r22,r2,5720 <___svfprintf_internal_r+0x1ddc>
    540c:	00801944 	movi	r2,101
    5410:	1441d80e 	bge	r2,r17,5b74 <___svfprintf_internal_r+0x2230>
    5414:	d8c02617 	ldw	r3,152(sp)
    5418:	00801984 	movi	r2,102
    541c:	d8c03215 	stw	r3,200(sp)
    5420:	88813426 	beq	r17,r2,58f4 <___svfprintf_internal_r+0x1fb0>
    5424:	d8c03217 	ldw	r3,200(sp)
    5428:	d9003317 	ldw	r4,204(sp)
    542c:	19012516 	blt	r3,r4,58c4 <___svfprintf_internal_r+0x1f80>
    5430:	9480004c 	andi	r18,r18,1
    5434:	9001841e 	bne	r18,zero,5a48 <___svfprintf_internal_r+0x2104>
    5438:	1805883a 	mov	r2,r3
    543c:	1801cb16 	blt	r3,zero,5b6c <___svfprintf_internal_r+0x2228>
    5440:	d8c03217 	ldw	r3,200(sp)
    5444:	044019c4 	movi	r17,103
    5448:	d8c02b15 	stw	r3,172(sp)
    544c:	df002907 	ldb	fp,164(sp)
    5450:	e000a61e 	bne	fp,zero,56ec <___svfprintf_internal_r+0x1da8>
    5454:	df002783 	ldbu	fp,158(sp)
    5458:	d8802915 	stw	r2,164(sp)
    545c:	dc802c17 	ldw	r18,176(sp)
    5460:	d8002a15 	stw	zero,168(sp)
    5464:	003af506 	br	403c <__alt_data_end+0xf800403c>
    5468:	04000074 	movhi	r16,1
    546c:	84179d04 	addi	r16,r16,24180
    5470:	003a7e06 	br	3e6c <__alt_data_end+0xf8003e6c>
    5474:	d9003917 	ldw	r4,228(sp)
    5478:	04001004 	movi	r16,64
    547c:	800b883a 	mov	r5,r16
    5480:	00029940 	call	2994 <_malloc_r>
    5484:	d9002d17 	ldw	r4,180(sp)
    5488:	20800015 	stw	r2,0(r4)
    548c:	20800415 	stw	r2,16(r4)
    5490:	1001d026 	beq	r2,zero,5bd4 <___svfprintf_internal_r+0x2290>
    5494:	d8802d17 	ldw	r2,180(sp)
    5498:	14000515 	stw	r16,20(r2)
    549c:	00394406 	br	39b0 <__alt_data_end+0xf80039b0>
    54a0:	04000074 	movhi	r16,1
    54a4:	84179f04 	addi	r16,r16,24188
    54a8:	003ee106 	br	5030 <__alt_data_end+0xf8005030>
    54ac:	d9402d17 	ldw	r5,180(sp)
    54b0:	d9801e04 	addi	r6,sp,120
    54b4:	9809883a 	mov	r4,r19
    54b8:	000bdc80 	call	bdc8 <__ssprint_r>
    54bc:	103a081e 	bne	r2,zero,3ce0 <__alt_data_end+0xf8003ce0>
    54c0:	dc402617 	ldw	r17,152(sp)
    54c4:	d8c02017 	ldw	r3,128(sp)
    54c8:	da000404 	addi	r8,sp,16
    54cc:	003f4306 	br	51dc <__alt_data_end+0xf80051dc>
    54d0:	01400184 	movi	r5,6
    54d4:	d9402a15 	stw	r5,168(sp)
